---
triple:          'arm64-apple-darwin'
binary-path:     '/Users/orlanforshaw/Documents/Ballz/Stones/C++_db/db'
relocations:
  - { offsetInCU: 0x2E7A, offset: 0x2E7A, size: 0x8, addend: 0x0, symName: __ZNSt3__124__put_character_sequenceB7v160006IcNS_11char_traitsIcEEEERNS_13basic_ostreamIT_T0_EES7_PKS4_m, symObjAddr: 0x1A38, symBinAddr: 0x100002ADC, symSize: 0x1F4 }
  - { offsetInCU: 0x73A3, offset: 0x73A3, size: 0x8, addend: 0x0, symName: __ZNSt3__1lsB7v160006INS_11char_traitsIcEEEERNS_13basic_ostreamIcT_EES6_PKc, symObjAddr: 0x460, symBinAddr: 0x100001504, symSize: 0x48 }
  - { offsetInCU: 0x73E9, offset: 0x73E9, size: 0x8, addend: 0x0, symName: __ZNSt3__14endlB7v160006IcNS_11char_traitsIcEEEERNS_13basic_ostreamIT_T0_EES7_, symObjAddr: 0x4FC, symBinAddr: 0x1000015A0, symSize: 0x58 }
  - { offsetInCU: 0x7429, offset: 0x7429, size: 0x8, addend: 0x0, symName: __ZNSt3__1lsB7v160006IcNS_11char_traitsIcEENS_9allocatorIcEEEERNS_13basic_ostreamIT_T0_EES9_RKNS_12basic_stringIS6_S7_T1_EE, symObjAddr: 0x554, symBinAddr: 0x1000015F8, symSize: 0x4C }
  - { offsetInCU: 0x7B81, offset: 0x7B81, size: 0x8, addend: 0x0, symName: __ZNSt3__17getlineB7v160006IcNS_11char_traitsIcEENS_9allocatorIcEEEERNS_13basic_istreamIT_T0_EES9_RNS_12basic_stringIS6_S7_T1_EE, symObjAddr: 0xE00, symBinAddr: 0x100001EA4, symSize: 0x5C }
  - { offsetInCU: 0x7BD9, offset: 0x7BD9, size: 0x8, addend: 0x0, symName: __ZNSt3__19make_pairB7v160006IRNS_12basic_stringIcNS_11char_traitsIcEENS_9allocatorIcEEEES7_EENS_4pairINS_18__unwrap_ref_decayIT_E4typeENS9_IT0_E4typeEEEOSA_OSD_, symObjAddr: 0x1068, symBinAddr: 0x10000210C, symSize: 0x40 }
  - { offsetInCU: 0x7C33, offset: 0x7C33, size: 0x8, addend: 0x0, symName: __ZNSt3__19make_pairB7v160006IRA2_KcS3_EENS_4pairINS_18__unwrap_ref_decayIT_E4typeENS5_IT0_E4typeEEEOS6_OS9_, symObjAddr: 0x15CC, symBinAddr: 0x100002670, symSize: 0x48 }
  - { offsetInCU: 0x7D2F, offset: 0x7D2F, size: 0x8, addend: 0x0, symName: __ZNSt3__116__pad_and_outputB7v160006IcNS_11char_traitsIcEEEENS_19ostreambuf_iteratorIT_T0_EES6_PKS4_S8_S8_RNS_8ios_baseES4_, symObjAddr: 0x1C90, symBinAddr: 0x100002D34, symSize: 0x248 }
  - { offsetInCU: 0x7DFE, offset: 0x7DFE, size: 0x8, addend: 0x0, symName: __ZNSt3__119__debug_db_insert_cB7v160006INS_12basic_stringIcNS_11char_traitsIcEENS_9allocatorIcEEEEEEvPT_, symObjAddr: 0x2120, symBinAddr: 0x1000031C4, symSize: 0x10 }
  - { offsetInCU: 0x7E2F, offset: 0x7E2F, size: 0x8, addend: 0x0, symName: __ZNSt3__112__to_addressB7v160006IKcEEPT_S3_, symObjAddr: 0x21EC, symBinAddr: 0x100003290, symSize: 0x14 }
  - { offsetInCU: 0x7E64, offset: 0x7E64, size: 0x8, addend: 0x0, symName: __ZNSt3__130__libcpp_is_constant_evaluatedB7v160006Ev, symObjAddr: 0x2318, symBinAddr: 0x1000033BC, symSize: 0xC }
  - { offsetInCU: 0x7EB4, offset: 0x7EB4, size: 0x8, addend: 0x0, symName: __ZNSt3__19use_facetB7v160006INS_5ctypeIcEEEERKT_RKNS_6localeE, symObjAddr: 0x24C8, symBinAddr: 0x10000356C, symSize: 0x2C }
  - { offsetInCU: 0x8383, offset: 0x8383, size: 0x8, addend: 0x0, symName: __ZNSt3__118__constexpr_strlenB7v160006EPKc, symObjAddr: 0x252C, symBinAddr: 0x1000035D0, symSize: 0x24 }
  - { offsetInCU: 0x83AF, offset: 0x83AF, size: 0x8, addend: 0x0, symName: __ZNSt3__119__debug_db_insert_cB7v160006INS_6vectorINS_4pairINS_12basic_stringIcNS_11char_traitsIcEENS_9allocatorIcEEEES8_EENS6_IS9_EEEEEEvPT_, symObjAddr: 0x2688, symBinAddr: 0x10000372C, symSize: 0x10 }
  - { offsetInCU: 0x83E0, offset: 0x83E0, size: 0x8, addend: 0x0, symName: __ZNSt3__118__debug_db_erase_cB7v160006INS_6vectorINS_4pairINS_12basic_stringIcNS_11char_traitsIcEENS_9allocatorIcEEEES8_EENS6_IS9_EEEEEEvPT_, symObjAddr: 0x2960, symBinAddr: 0x100003A04, symSize: 0x10 }
  - { offsetInCU: 0x8411, offset: 0x8411, size: 0x8, addend: 0x0, symName: __ZNSt3__112__to_addressB7v160006INS_4pairINS_12basic_stringIcNS_11char_traitsIcEENS_9allocatorIcEEEES7_EEEEPT_SA_, symObjAddr: 0x2A7C, symBinAddr: 0x100003B20, symSize: 0x14 }
  - { offsetInCU: 0x8446, offset: 0x8446, size: 0x8, addend: 0x0, symName: __ZNSt3__119__libcpp_deallocateB7v160006EPvmm, symObjAddr: 0x2BF8, symBinAddr: 0x100003C9C, symSize: 0x30 }
  - { offsetInCU: 0x848E, offset: 0x848E, size: 0x8, addend: 0x0, symName: __ZNSt3__127__do_deallocate_handle_sizeB7v160006IJEEEvPvmDpT_, symObjAddr: 0x2C28, symBinAddr: 0x100003CCC, symSize: 0x28 }
  - { offsetInCU: 0x84CC, offset: 0x84CC, size: 0x8, addend: 0x0, symName: __ZNSt3__124__libcpp_operator_deleteB7v160006IJPvEEEvDpT_, symObjAddr: 0x2C50, symBinAddr: 0x100003CF4, symSize: 0x24 }
  - { offsetInCU: 0x8501, offset: 0x8501, size: 0x8, addend: 0x0, symName: __ZNSt3__117__libcpp_allocateB7v160006Emm, symObjAddr: 0x3174, symBinAddr: 0x100004218, symSize: 0x28 }
  - { offsetInCU: 0x853E, offset: 0x853E, size: 0x8, addend: 0x0, symName: __ZNSt3__121__libcpp_operator_newB7v160006IJmEEEPvDpT_, symObjAddr: 0x31B0, symBinAddr: 0x100004254, symSize: 0x24 }
  - { offsetInCU: 0x8577, offset: 0x8577, size: 0x8, addend: 0x0, symName: __ZNSt3__17getlineB7v160006IcNS_11char_traitsIcEENS_9allocatorIcEEEERNS_13basic_istreamIT_T0_EES9_RNS_12basic_stringIS6_S7_T1_EES6_, symObjAddr: 0x320C, symBinAddr: 0x1000042B0, symSize: 0x238 }
  - { offsetInCU: 0x8635, offset: 0x8635, size: 0x8, addend: 0x0, symName: __ZNSt3__125__debug_db_invalidate_allB7v160006INS_12basic_stringIcNS_11char_traitsIcEENS_9allocatorIcEEEEEEvPT_, symObjAddr: 0x36E8, symBinAddr: 0x10000478C, symSize: 0x10 }
  - { offsetInCU: 0x889B, offset: 0x889B, size: 0x8, addend: 0x0, symName: __ZNSt3__110__str_findB7v160006IcmNS_11char_traitsIcEELm18446744073709551615EEET0_PKT_S3_S6_S3_S3_, symObjAddr: 0x38C8, symBinAddr: 0x10000496C, symSize: 0xE4 }
  - { offsetInCU: 0x8942, offset: 0x8942, size: 0x8, addend: 0x0, symName: __ZNSt3__118__search_substringB7v160006IcNS_11char_traitsIcEEEEPKT_S5_S5_S5_S5_, symObjAddr: 0x39AC, symBinAddr: 0x100004A50, symSize: 0x154 }
  - { offsetInCU: 0x89DC, offset: 0x89DC, size: 0x8, addend: 0x0, symName: __ZNSt3__123__constexpr_char_memchrB7v160006EPKcim, symObjAddr: 0x3C04, symBinAddr: 0x100004CA8, symSize: 0x34 }
  - { offsetInCU: 0x8A24, offset: 0x8A24, size: 0x8, addend: 0x0, symName: __ZNSt3__118__constexpr_memcmpB7v160006IcEEiPKT_S3_m, symObjAddr: 0x3C38, symBinAddr: 0x100004CDC, symSize: 0x34 }
  - { offsetInCU: 0x8A75, offset: 0x8A75, size: 0x8, addend: 0x0, symName: __ZNSt3__13maxB7v160006ImEERKT_S3_S3_, symObjAddr: 0x43F8, symBinAddr: 0x10000549C, symSize: 0x2C }
  - { offsetInCU: 0x8AB8, offset: 0x8AB8, size: 0x8, addend: 0x0, symName: __ZNSt3__13minB7v160006ImEERKT_S3_S3_, symObjAddr: 0x4424, symBinAddr: 0x1000054C8, symSize: 0x2C }
  - { offsetInCU: 0x8CFC, offset: 0x8CFC, size: 0x8, addend: 0x0, symName: __ZNSt3__13minB7v160006ImNS_6__lessImmEEEERKT_S5_S5_T0_, symObjAddr: 0x44B0, symBinAddr: 0x100005554, symSize: 0x54 }
  - { offsetInCU: 0x8D91, offset: 0x8D91, size: 0x8, addend: 0x0, symName: __ZNSt3__120__throw_length_errorB7v160006EPKc, symObjAddr: 0x4590, symBinAddr: 0x100005634, symSize: 0x64 }
  - { offsetInCU: 0x8DB9, offset: 0x8DB9, size: 0x8, addend: 0x0, symName: __ZNSt3__13maxB7v160006ImNS_6__lessImmEEEERKT_S5_S5_T0_, symObjAddr: 0x4674, symBinAddr: 0x100005718, symSize: 0x54 }
  - { offsetInCU: 0x8E13, offset: 0x8E13, size: 0x8, addend: 0x0, symName: __ZNSt3__119__allocate_at_leastB7v160006INS_9allocatorINS_4pairINS_12basic_stringIcNS_11char_traitsIcEENS1_IcEEEES7_EEEEEENS_19__allocation_resultINS_16allocator_traitsIT_E7pointerEEERSC_m, symObjAddr: 0x47E4, symBinAddr: 0x100005888, symSize: 0x40 }
  - { offsetInCU: 0x8E56, offset: 0x8E56, size: 0x8, addend: 0x0, symName: __ZNSt3__142__uninitialized_allocator_move_if_noexceptB7v160006INS_9allocatorINS_4pairINS_12basic_stringIcNS_11char_traitsIcEENS1_IcEEEES7_EEEENS_16reverse_iteratorIPS8_EESC_SC_EET2_RT_T0_T1_SD_, symObjAddr: 0x49CC, symBinAddr: 0x100005A70, symSize: 0x134 }
  - { offsetInCU: 0x8EF6, offset: 0x8EF6, size: 0x8, addend: 0x0, symName: __ZNSt3__14swapB7v160006IPNS_4pairINS_12basic_stringIcNS_11char_traitsIcEENS_9allocatorIcEEEES7_EEEEvRT_SB_, symObjAddr: 0x4B4C, symBinAddr: 0x100005BF0, symSize: 0x3C }
  - { offsetInCU: 0x8F47, offset: 0x8F47, size: 0x8, addend: 0x0, symName: __ZNSt3__125__debug_db_invalidate_allB7v160006INS_6vectorINS_4pairINS_12basic_stringIcNS_11char_traitsIcEENS_9allocatorIcEEEES8_EENS6_IS9_EEEEEEvPT_, symObjAddr: 0x4C50, symBinAddr: 0x100005CF4, symSize: 0x10 }
  - { offsetInCU: 0x8F78, offset: 0x8F78, size: 0x8, addend: 0x0, symName: __ZNSt3__122__make_exception_guardB7v160006INS_29_AllocatorDestroyRangeReverseINS_9allocatorINS_4pairINS_12basic_stringIcNS_11char_traitsIcEENS2_IcEEEES8_EEEENS_16reverse_iteratorIPS9_EEEEEENS_28__exception_guard_exceptionsIT_EESG_, symObjAddr: 0x4C60, symBinAddr: 0x100005D04, symSize: 0x4C }
  - { offsetInCU: 0x8FAE, offset: 0x8FAE, size: 0x8, addend: 0x0, symName: __ZNSt3__1neB7v160006IPNS_4pairINS_12basic_stringIcNS_11char_traitsIcEENS_9allocatorIcEEEES7_EES9_EEbRKNS_16reverse_iteratorIT_EERKNSA_IT0_EE, symObjAddr: 0x4CF0, symBinAddr: 0x100005D94, symSize: 0x48 }
  - { offsetInCU: 0x8FFA, offset: 0x8FFA, size: 0x8, addend: 0x0, symName: __ZNSt3__112__to_addressB7v160006INS_16reverse_iteratorIPNS_4pairINS_12basic_stringIcNS_11char_traitsIcEENS_9allocatorIcEEEES8_EEEEvEENS_5decayIDTclsr19__to_address_helperIT_EE6__callclsr3stdE7declvalIRKSD_EEEEE4typeESF_, symObjAddr: 0x4D6C, symBinAddr: 0x100005E10, symSize: 0x24 }
  - { offsetInCU: 0x9059, offset: 0x9059, size: 0x8, addend: 0x0, symName: __ZNSt3__119__allocator_destroyB7v160006INS_9allocatorINS_4pairINS_12basic_stringIcNS_11char_traitsIcEENS1_IcEEEES7_EEEENS_16reverse_iteratorINSA_IPS8_EEEESD_EEvRT_T0_T1_, symObjAddr: 0x5104, symBinAddr: 0x1000061A8, symSize: 0x70 }
  - { offsetInCU: 0x90BE, offset: 0x90BE, size: 0x8, addend: 0x0, symName: __ZNSt3__1neB7v160006INS_16reverse_iteratorIPNS_4pairINS_12basic_stringIcNS_11char_traitsIcEENS_9allocatorIcEEEES8_EEEESB_EEbRKNS1_IT_EERKNS1_IT0_EE, symObjAddr: 0x51B0, symBinAddr: 0x100006254, symSize: 0x60 }
  - { offsetInCU: 0x910A, offset: 0x910A, size: 0x8, addend: 0x0, symName: __ZNSt3__112__to_addressB7v160006INS_16reverse_iteratorINS1_IPNS_4pairINS_12basic_stringIcNS_11char_traitsIcEENS_9allocatorIcEEEES8_EEEEEEvEENS_5decayIDTclsr19__to_address_helperIT_EE6__callclsr3stdE7declvalIRKSE_EEEEE4typeESG_, symObjAddr: 0x5210, symBinAddr: 0x1000062B4, symSize: 0x24 }
  - { offsetInCU: 0x9169, offset: 0x9169, size: 0x8, addend: 0x0, symName: __ZNSt3__122__make_exception_guardB7v160006INS_6vectorINS_4pairINS_12basic_stringIcNS_11char_traitsIcEENS_9allocatorIcEEEES8_EENS6_IS9_EEE16__destroy_vectorEEENS_28__exception_guard_exceptionsIT_EESE_, symObjAddr: 0x5844, symBinAddr: 0x1000068E8, symSize: 0x40 }
  - { offsetInCU: 0x919E, offset: 0x919E, size: 0x8, addend: 0x0, symName: __ZNSt3__130__uninitialized_allocator_copyB7v160006INS_9allocatorINS_4pairINS_12basic_stringIcNS_11char_traitsIcEENS1_IcEEEES7_EEEEPS8_SA_SA_EET2_RT_T0_T1_SB_, symObjAddr: 0x5AC8, symBinAddr: 0x100006B6C, symSize: 0xFC }
  - { offsetInCU: 0x923C, offset: 0x923C, size: 0x8, addend: 0x0, symName: __ZNSt3__122__make_exception_guardB7v160006INS_29_AllocatorDestroyRangeReverseINS_9allocatorINS_4pairINS_12basic_stringIcNS_11char_traitsIcEENS2_IcEEEES8_EEEEPS9_EEEENS_28__exception_guard_exceptionsIT_EESE_, symObjAddr: 0x5BC4, symBinAddr: 0x100006C68, symSize: 0x4C }
  - { offsetInCU: 0x9272, offset: 0x9272, size: 0x8, addend: 0x0, symName: __ZNSt3__119__allocator_destroyB7v160006INS_9allocatorINS_4pairINS_12basic_stringIcNS_11char_traitsIcEENS1_IcEEEES7_EEEENS_16reverse_iteratorIPS8_EESC_EEvRT_T0_T1_, symObjAddr: 0x5E4C, symBinAddr: 0x100006EF0, symSize: 0x70 }
  - { offsetInCU: 0x92D5, offset: 0x92D5, size: 0x8, addend: 0x0, symName: __ZNSt3__115__debug_db_swapB7v160006INS_6vectorINS_4pairINS_12basic_stringIcNS_11char_traitsIcEENS_9allocatorIcEEEES8_EENS6_IS9_EEEEEEvPT_SD_, symObjAddr: 0x6060, symBinAddr: 0x100007104, symSize: 0x14 }
  - { offsetInCU: 0x94D7, offset: 0x94D7, size: 0x8, addend: 0x0, symName: __ZSt28__throw_bad_array_new_lengthB7v160006v, symObjAddr: 0x3140, symBinAddr: 0x1000041E4, symSize: 0x34 }
  - { offsetInCU: 0x9A6A, offset: 0x9A6A, size: 0x8, addend: 0x0, symName: __ZNSt3__16vectorINS_4pairINS_12basic_stringIcNS_11char_traitsIcEENS_9allocatorIcEEEES7_EENS5_IS8_EEE26__swap_out_circular_bufferERNS_14__split_bufferIS8_RS9_EE, symObjAddr: 0x4224, symBinAddr: 0x1000052C8, symSize: 0x118 }
  - { offsetInCU: 0xBD13, offset: 0xBD13, size: 0x8, addend: 0x0, symName: __Z3PutNSt3__16vectorINS_4pairINS_12basic_stringIcNS_11char_traitsIcEENS_9allocatorIcEEEES7_EENS5_IS8_EEEEiRi, symObjAddr: 0x0, symBinAddr: 0x1000010A4, symSize: 0x2B8 }
  - { offsetInCU: 0xBE25, offset: 0xBE25, size: 0x8, addend: 0x0, symName: __ZNSt3__114basic_ofstreamIcNS_11char_traitsIcEEEC1EPKcj, symObjAddr: 0x2B8, symBinAddr: 0x10000135C, symSize: 0x17C }
  - { offsetInCU: 0xBE6D, offset: 0xBE6D, size: 0x8, addend: 0x0, symName: __ZNKSt3__114basic_ofstreamIcNS_11char_traitsIcEEE7is_openEv, symObjAddr: 0x434, symBinAddr: 0x1000014D8, symSize: 0x2C }
  - { offsetInCU: 0xBE94, offset: 0xBE94, size: 0x8, addend: 0x0, symName: __ZNKSt3__16vectorINS_4pairINS_12basic_stringIcNS_11char_traitsIcEENS_9allocatorIcEEEES7_EENS5_IS8_EEE4sizeB7v160006Ev, symObjAddr: 0x4A8, symBinAddr: 0x10000154C, symSize: 0x28 }
  - { offsetInCU: 0xBEB9, offset: 0xBEB9, size: 0x8, addend: 0x0, symName: __ZNSt3__113basic_ostreamIcNS_11char_traitsIcEEElsB7v160006EPFRS3_S4_E, symObjAddr: 0x4D0, symBinAddr: 0x100001574, symSize: 0x2C }
  - { offsetInCU: 0xBEEC, offset: 0xBEEC, size: 0x8, addend: 0x0, symName: __ZNSt3__16vectorINS_4pairINS_12basic_stringIcNS_11char_traitsIcEENS_9allocatorIcEEEES7_EENS5_IS8_EEEixB7v160006Em, symObjAddr: 0x5A0, symBinAddr: 0x100001644, symSize: 0x2C }
  - { offsetInCU: 0xBF21, offset: 0xBF21, size: 0x8, addend: 0x0, symName: __ZNSt3__114basic_ofstreamIcNS_11char_traitsIcEEE5closeEv, symObjAddr: 0x5CC, symBinAddr: 0x100001670, symSize: 0x58 }
  - { offsetInCU: 0xBF4D, offset: 0xBF4D, size: 0x8, addend: 0x0, symName: __ZNSt3__114basic_ofstreamIcNS_11char_traitsIcEEED1Ev, symObjAddr: 0x624, symBinAddr: 0x1000016C8, symSize: 0x70 }
  - { offsetInCU: 0xBF78, offset: 0xBF78, size: 0x8, addend: 0x0, symName: __Z3Getii, symObjAddr: 0x6A0, symBinAddr: 0x100001744, symSize: 0x560 }
  - { offsetInCU: 0xC058, offset: 0xC058, size: 0x8, addend: 0x0, symName: __ZNSt3__16vectorINS_4pairINS_12basic_stringIcNS_11char_traitsIcEENS_9allocatorIcEEEES7_EENS5_IS8_EEEC1B7v160006Ev, symObjAddr: 0xC00, symBinAddr: 0x100001CA4, symSize: 0x2C }
  - { offsetInCU: 0xC10E, offset: 0xC10E, size: 0x8, addend: 0x0, symName: __ZNSt3__114basic_ifstreamIcNS_11char_traitsIcEEEC1EPKcj, symObjAddr: 0xC2C, symBinAddr: 0x100001CD0, symSize: 0x17C }
  - { offsetInCU: 0xC157, offset: 0xC157, size: 0x8, addend: 0x0, symName: __ZNSt3__112basic_stringIcNS_11char_traitsIcEENS_9allocatorIcEEEC1B7v160006Ev, symObjAddr: 0xDA8, symBinAddr: 0x100001E4C, symSize: 0x2C }
  - { offsetInCU: 0xC17F, offset: 0xC17F, size: 0x8, addend: 0x0, symName: __ZNKSt3__114basic_ifstreamIcNS_11char_traitsIcEEE7is_openEv, symObjAddr: 0xDD4, symBinAddr: 0x100001E78, symSize: 0x2C }
  - { offsetInCU: 0xC1A6, offset: 0xC1A6, size: 0x8, addend: 0x0, symName: __ZNKSt3__112basic_stringIcNS_11char_traitsIcEENS_9allocatorIcEEE6substrB7v160006Emm, symObjAddr: 0xE5C, symBinAddr: 0x100001F00, symSize: 0x68 }
  - { offsetInCU: 0xC1E8, offset: 0xC1E8, size: 0x8, addend: 0x0, symName: __ZNKSt3__112basic_stringIcNS_11char_traitsIcEENS_9allocatorIcEEE4findB7v160006EPKcm, symObjAddr: 0xEC4, symBinAddr: 0x100001F68, symSize: 0x74 }
  - { offsetInCU: 0xC22D, offset: 0xC22D, size: 0x8, addend: 0x0, symName: __ZNKSt3__19basic_iosIcNS_11char_traitsIcEEEcvPvB7v160006Ev, symObjAddr: 0xF38, symBinAddr: 0x100001FDC, symSize: 0x4C }
  - { offsetInCU: 0xC251, offset: 0xC251, size: 0x8, addend: 0x0, symName: __ZNKSt3__112basic_stringIcNS_11char_traitsIcEENS_9allocatorIcEEE4findB7v160006ERKS5_m, symObjAddr: 0xF84, symBinAddr: 0x100002028, symSize: 0x78 }
  - { offsetInCU: 0xC295, offset: 0xC295, size: 0x8, addend: 0x0, symName: __ZNSt3__16vectorINS_4pairINS_12basic_stringIcNS_11char_traitsIcEENS_9allocatorIcEEEES7_EENS5_IS8_EEE9push_backB7v160006EOS8_, symObjAddr: 0xFFC, symBinAddr: 0x1000020A0, symSize: 0x6C }
  - { offsetInCU: 0xC2CB, offset: 0xC2CB, size: 0x8, addend: 0x0, symName: __ZNSt3__14pairINS_12basic_stringIcNS_11char_traitsIcEENS_9allocatorIcEEEES6_ED1Ev, symObjAddr: 0x10A8, symBinAddr: 0x10000214C, symSize: 0x2C }
  - { offsetInCU: 0xC2F5, offset: 0xC2F5, size: 0x8, addend: 0x0, symName: __ZNSt3__114basic_ifstreamIcNS_11char_traitsIcEEE5closeEv, symObjAddr: 0x10D4, symBinAddr: 0x100002178, symSize: 0x58 }
  - { offsetInCU: 0xC321, offset: 0xC321, size: 0x8, addend: 0x0, symName: __ZNSt3__114basic_ifstreamIcNS_11char_traitsIcEEED1Ev, symObjAddr: 0x112C, symBinAddr: 0x1000021D0, symSize: 0x70 }
  - { offsetInCU: 0xC34D, offset: 0xC34D, size: 0x8, addend: 0x0, symName: __ZNSt3__16vectorINS_4pairINS_12basic_stringIcNS_11char_traitsIcEENS_9allocatorIcEEEES7_EENS5_IS8_EEED1B7v160006Ev, symObjAddr: 0x119C, symBinAddr: 0x100002240, symSize: 0x2C }
  - { offsetInCU: 0xC376, offset: 0xC376, size: 0x8, addend: 0x0, symName: _main, symObjAddr: 0x11C8, symBinAddr: 0x10000226C, symSize: 0x3D0 }
  - { offsetInCU: 0xC3E5, offset: 0xC3E5, size: 0x8, addend: 0x0, symName: __ZNSt3__112basic_stringIcNS_11char_traitsIcEENS_9allocatorIcEEEC1B7v160006IDnEEPKc, symObjAddr: 0x1598, symBinAddr: 0x10000263C, symSize: 0x34 }
  - { offsetInCU: 0xC445, offset: 0xC445, size: 0x8, addend: 0x0, symName: __ZNSt3__14pairINS_12basic_stringIcNS_11char_traitsIcEENS_9allocatorIcEEEES6_EC1B7v160006IPKcSA_EERKNS0_IT_T0_EE, symObjAddr: 0x1614, symBinAddr: 0x1000026B8, symSize: 0x34 }
  - { offsetInCU: 0xC48E, offset: 0xC48E, size: 0x8, addend: 0x0, symName: __ZNSt3__16vectorINS_4pairINS_12basic_stringIcNS_11char_traitsIcEENS_9allocatorIcEEEES7_EENS5_IS8_EEEC1ERKSA_, symObjAddr: 0x1648, symBinAddr: 0x1000026EC, symSize: 0x34 }
  - { offsetInCU: 0xC4C7, offset: 0xC4C7, size: 0x8, addend: 0x0, symName: __ZNSt3__16vectorINS_4pairINS_12basic_stringIcNS_11char_traitsIcEENS_9allocatorIcEEEES7_EENS5_IS8_EEEaSB7v160006EOSA_, symObjAddr: 0x167C, symBinAddr: 0x100002720, symSize: 0x34 }
  - { offsetInCU: 0xC4FD, offset: 0xC4FD, size: 0x8, addend: 0x0, symName: __ZNSt3__114basic_ofstreamIcNS_11char_traitsIcEEED2Ev, symObjAddr: 0x16B0, symBinAddr: 0x100002754, symSize: 0x9C }
  - { offsetInCU: 0xC535, offset: 0xC535, size: 0x8, addend: 0x0, symName: __ZTv0_n24_NSt3__114basic_ofstreamIcNS_11char_traitsIcEEED1Ev, symObjAddr: 0x174C, symBinAddr: 0x1000027F0, symSize: 0x28 }
  - { offsetInCU: 0xC54C, offset: 0xC54C, size: 0x8, addend: 0x0, symName: __ZNSt3__14pairINS_12basic_stringIcNS_11char_traitsIcEENS_9allocatorIcEEEES6_ED2Ev, symObjAddr: 0x1774, symBinAddr: 0x100002818, symSize: 0x68 }
  - { offsetInCU: 0xC577, offset: 0xC577, size: 0x8, addend: 0x0, symName: __ZNSt3__114basic_ifstreamIcNS_11char_traitsIcEEED2Ev, symObjAddr: 0x17DC, symBinAddr: 0x100002880, symSize: 0x9C }
  - { offsetInCU: 0xC5AF, offset: 0xC5AF, size: 0x8, addend: 0x0, symName: __ZTv0_n24_NSt3__114basic_ifstreamIcNS_11char_traitsIcEEED1Ev, symObjAddr: 0x1878, symBinAddr: 0x10000291C, symSize: 0x28 }
  - { offsetInCU: 0xC5C6, offset: 0xC5C6, size: 0x8, addend: 0x0, symName: __ZNSt3__19basic_iosIcNS_11char_traitsIcEEEC2B7v160006Ev, symObjAddr: 0x18A0, symBinAddr: 0x100002944, symSize: 0x44 }
  - { offsetInCU: 0xC5EF, offset: 0xC5EF, size: 0x8, addend: 0x0, symName: __ZNSt3__113basic_ostreamIcNS_11char_traitsIcEEEC2B7v160006EPNS_15basic_streambufIcS2_EE, symObjAddr: 0x18E4, symBinAddr: 0x100002988, symSize: 0x60 }
  - { offsetInCU: 0xC632, offset: 0xC632, size: 0x8, addend: 0x0, symName: __ZNSt3__19basic_iosIcNS_11char_traitsIcEEE8setstateB7v160006Ej, symObjAddr: 0x1944, symBinAddr: 0x1000029E8, symSize: 0x2C }
  - { offsetInCU: 0xC666, offset: 0xC666, size: 0x8, addend: 0x0, symName: __ZNSt3__18ios_baseC2B7v160006Ev, symObjAddr: 0x1970, symBinAddr: 0x100002A14, symSize: 0x24 }
  - { offsetInCU: 0xC68E, offset: 0xC68E, size: 0x8, addend: 0x0, symName: __ZNSt3__19basic_iosIcNS_11char_traitsIcEEE4initB7v160006EPNS_15basic_streambufIcS2_EE, symObjAddr: 0x1994, symBinAddr: 0x100002A38, symSize: 0x44 }
  - { offsetInCU: 0xC6C4, offset: 0xC6C4, size: 0x8, addend: 0x0, symName: __ZNSt3__111char_traitsIcE3eofEv, symObjAddr: 0x19D8, symBinAddr: 0x100002A7C, symSize: 0x8 }
  - { offsetInCU: 0xC6D7, offset: 0xC6D7, size: 0x8, addend: 0x0, symName: __ZNSt3__18ios_base8setstateB7v160006Ej, symObjAddr: 0x19E0, symBinAddr: 0x100002A84, symSize: 0x34 }
  - { offsetInCU: 0xC70D, offset: 0xC70D, size: 0x8, addend: 0x0, symName: __ZNKSt3__113basic_filebufIcNS_11char_traitsIcEEE7is_openEv, symObjAddr: 0x1A14, symBinAddr: 0x100002AB8, symSize: 0x24 }
  - { offsetInCU: 0xC734, offset: 0xC734, size: 0x8, addend: 0x0, symName: __ZNSt3__111char_traitsIcE6lengthEPKc, symObjAddr: 0x1C2C, symBinAddr: 0x100002CD0, symSize: 0x48 }
  - { offsetInCU: 0xC775, offset: 0xC775, size: 0x8, addend: 0x0, symName: __ZNKSt3__113basic_ostreamIcNS_11char_traitsIcEEE6sentrycvbB7v160006Ev, symObjAddr: 0x1C74, symBinAddr: 0x100002D18, symSize: 0x1C }
  - { offsetInCU: 0xC79A, offset: 0xC79A, size: 0x8, addend: 0x0, symName: __ZNSt3__119ostreambuf_iteratorIcNS_11char_traitsIcEEEC1B7v160006ERNS_13basic_ostreamIcS2_EE, symObjAddr: 0x1ED8, symBinAddr: 0x100002F7C, symSize: 0x34 }
  - { offsetInCU: 0xC7D1, offset: 0xC7D1, size: 0x8, addend: 0x0, symName: __ZNKSt3__18ios_base5flagsB7v160006Ev, symObjAddr: 0x1F0C, symBinAddr: 0x100002FB0, symSize: 0x18 }
  - { offsetInCU: 0xC7F7, offset: 0xC7F7, size: 0x8, addend: 0x0, symName: __ZNKSt3__19basic_iosIcNS_11char_traitsIcEEE4fillB7v160006Ev, symObjAddr: 0x1F24, symBinAddr: 0x100002FC8, symSize: 0x64 }
  - { offsetInCU: 0xC81E, offset: 0xC81E, size: 0x8, addend: 0x0, symName: __ZNKSt3__119ostreambuf_iteratorIcNS_11char_traitsIcEEE6failedB7v160006Ev, symObjAddr: 0x1F88, symBinAddr: 0x10000302C, symSize: 0x24 }
  - { offsetInCU: 0xC843, offset: 0xC843, size: 0x8, addend: 0x0, symName: __ZNKSt3__18ios_base5widthB7v160006Ev, symObjAddr: 0x1FAC, symBinAddr: 0x100003050, symSize: 0x18 }
  - { offsetInCU: 0xC86A, offset: 0xC86A, size: 0x8, addend: 0x0, symName: __ZNSt3__115basic_streambufIcNS_11char_traitsIcEEE5sputnB7v160006EPKcl, symObjAddr: 0x1FC4, symBinAddr: 0x100003068, symSize: 0x3C }
  - { offsetInCU: 0xC8AB, offset: 0xC8AB, size: 0x8, addend: 0x0, symName: __ZNSt3__112basic_stringIcNS_11char_traitsIcEENS_9allocatorIcEEEC1B7v160006Emc, symObjAddr: 0x2000, symBinAddr: 0x1000030A4, symSize: 0x3C }
  - { offsetInCU: 0xC8F2, offset: 0xC8F2, size: 0x8, addend: 0x0, symName: __ZNKSt3__112basic_stringIcNS_11char_traitsIcEENS_9allocatorIcEEE4dataB7v160006Ev, symObjAddr: 0x203C, symBinAddr: 0x1000030E0, symSize: 0x28 }
  - { offsetInCU: 0xC917, offset: 0xC917, size: 0x8, addend: 0x0, symName: __ZNSt3__18ios_base5widthB7v160006El, symObjAddr: 0x2064, symBinAddr: 0x100003108, symSize: 0x2C }
  - { offsetInCU: 0xC95C, offset: 0xC95C, size: 0x8, addend: 0x0, symName: __ZNSt3__112basic_stringIcNS_11char_traitsIcEENS_9allocatorIcEEEC2B7v160006Emc, symObjAddr: 0x2090, symBinAddr: 0x100003134, symSize: 0x54 }
  - { offsetInCU: 0xC9A8, offset: 0xC9A8, size: 0x8, addend: 0x0, symName: __ZNSt3__117__compressed_pairINS_12basic_stringIcNS_11char_traitsIcEENS_9allocatorIcEEE5__repES5_EC1B7v160006INS_18__default_init_tagESA_EEOT_OT0_, symObjAddr: 0x20E4, symBinAddr: 0x100003188, symSize: 0x3C }
  - { offsetInCU: 0xC9FF, offset: 0xC9FF, size: 0x8, addend: 0x0, symName: __ZNSt3__117__compressed_pairINS_12basic_stringIcNS_11char_traitsIcEENS_9allocatorIcEEE5__repES5_EC2B7v160006INS_18__default_init_tagESA_EEOT_OT0_, symObjAddr: 0x2130, symBinAddr: 0x1000031D4, symSize: 0x3C }
  - { offsetInCU: 0xCA56, offset: 0xCA56, size: 0x8, addend: 0x0, symName: __ZNSt3__122__compressed_pair_elemINS_12basic_stringIcNS_11char_traitsIcEENS_9allocatorIcEEE5__repELi0ELb0EEC2B7v160006ENS_18__default_init_tagE, symObjAddr: 0x216C, symBinAddr: 0x100003210, symSize: 0x14 }
  - { offsetInCU: 0xCA8A, offset: 0xCA8A, size: 0x8, addend: 0x0, symName: __ZNSt3__122__compressed_pair_elemINS_9allocatorIcEELi1ELb1EEC2B7v160006ENS_18__default_init_tagE, symObjAddr: 0x2180, symBinAddr: 0x100003224, symSize: 0x2C }
  - { offsetInCU: 0xCABE, offset: 0xCABE, size: 0x8, addend: 0x0, symName: __ZNSt3__19allocatorIcEC2B7v160006Ev, symObjAddr: 0x21AC, symBinAddr: 0x100003250, symSize: 0x2C }
  - { offsetInCU: 0xCAE7, offset: 0xCAE7, size: 0x8, addend: 0x0, symName: __ZNSt3__116__non_trivial_ifILb1ENS_9allocatorIcEEEC2B7v160006Ev, symObjAddr: 0x21D8, symBinAddr: 0x10000327C, symSize: 0x14 }
  - { offsetInCU: 0xCB10, offset: 0xCB10, size: 0x8, addend: 0x0, symName: __ZNKSt3__112basic_stringIcNS_11char_traitsIcEENS_9allocatorIcEEE13__get_pointerB7v160006Ev, symObjAddr: 0x2200, symBinAddr: 0x1000032A4, symSize: 0x54 }
  - { offsetInCU: 0xCB35, offset: 0xCB35, size: 0x8, addend: 0x0, symName: __ZNKSt3__112basic_stringIcNS_11char_traitsIcEENS_9allocatorIcEEE9__is_longB7v160006Ev, symObjAddr: 0x2254, symBinAddr: 0x1000032F8, symSize: 0x74 }
  - { offsetInCU: 0xCB5A, offset: 0xCB5A, size: 0x8, addend: 0x0, symName: __ZNKSt3__112basic_stringIcNS_11char_traitsIcEENS_9allocatorIcEEE18__get_long_pointerB7v160006Ev, symObjAddr: 0x22C8, symBinAddr: 0x10000336C, symSize: 0x28 }
  - { offsetInCU: 0xCB7F, offset: 0xCB7F, size: 0x8, addend: 0x0, symName: __ZNKSt3__112basic_stringIcNS_11char_traitsIcEENS_9allocatorIcEEE19__get_short_pointerB7v160006Ev, symObjAddr: 0x22F0, symBinAddr: 0x100003394, symSize: 0x28 }
  - { offsetInCU: 0xCBA4, offset: 0xCBA4, size: 0x8, addend: 0x0, symName: __ZNKSt3__117__compressed_pairINS_12basic_stringIcNS_11char_traitsIcEENS_9allocatorIcEEE5__repES5_E5firstB7v160006Ev, symObjAddr: 0x2324, symBinAddr: 0x1000033C8, symSize: 0x24 }
  - { offsetInCU: 0xCBC9, offset: 0xCBC9, size: 0x8, addend: 0x0, symName: __ZNKSt3__122__compressed_pair_elemINS_12basic_stringIcNS_11char_traitsIcEENS_9allocatorIcEEE5__repELi0ELb0EE5__getB7v160006Ev, symObjAddr: 0x2348, symBinAddr: 0x1000033EC, symSize: 0x14 }
  - { offsetInCU: 0xCBEE, offset: 0xCBEE, size: 0x8, addend: 0x0, symName: __ZNSt3__114pointer_traitsIPKcE10pointer_toB7v160006ERS1_, symObjAddr: 0x235C, symBinAddr: 0x100003400, symSize: 0x14 }
  - { offsetInCU: 0xCC11, offset: 0xCC11, size: 0x8, addend: 0x0, symName: __ZNSt3__119ostreambuf_iteratorIcNS_11char_traitsIcEEEC2B7v160006ERNS_13basic_ostreamIcS2_EE, symObjAddr: 0x2370, symBinAddr: 0x100003414, symSize: 0x68 }
  - { offsetInCU: 0xCC47, offset: 0xCC47, size: 0x8, addend: 0x0, symName: __ZNKSt3__19basic_iosIcNS_11char_traitsIcEEE5rdbufB7v160006Ev, symObjAddr: 0x23D8, symBinAddr: 0x10000347C, symSize: 0x24 }
  - { offsetInCU: 0xCC6E, offset: 0xCC6E, size: 0x8, addend: 0x0, symName: __ZNKSt3__18ios_base5rdbufB7v160006Ev, symObjAddr: 0x23FC, symBinAddr: 0x1000034A0, symSize: 0x18 }
  - { offsetInCU: 0xCC93, offset: 0xCC93, size: 0x8, addend: 0x0, symName: __ZNSt3__111char_traitsIcE11eq_int_typeEii, symObjAddr: 0x2414, symBinAddr: 0x1000034B8, symSize: 0x28 }
  - { offsetInCU: 0xCCC3, offset: 0xCCC3, size: 0x8, addend: 0x0, symName: __ZNKSt3__19basic_iosIcNS_11char_traitsIcEEE5widenB7v160006Ec, symObjAddr: 0x243C, symBinAddr: 0x1000034E0, symSize: 0x8C }
  - { offsetInCU: 0xCD30, offset: 0xCD30, size: 0x8, addend: 0x0, symName: __ZNKSt3__15ctypeIcE5widenB7v160006Ec, symObjAddr: 0x24F4, symBinAddr: 0x100003598, symSize: 0x38 }
  - { offsetInCU: 0xCD64, offset: 0xCD64, size: 0x8, addend: 0x0, symName: __ZNKSt3__112basic_stringIcNS_11char_traitsIcEENS_9allocatorIcEEE4sizeB7v160006Ev, symObjAddr: 0x2550, symBinAddr: 0x1000035F4, symSize: 0x54 }
  - { offsetInCU: 0xCD89, offset: 0xCD89, size: 0x8, addend: 0x0, symName: __ZNKSt3__112basic_stringIcNS_11char_traitsIcEENS_9allocatorIcEEE15__get_long_sizeB7v160006Ev, symObjAddr: 0x25A4, symBinAddr: 0x100003648, symSize: 0x28 }
  - { offsetInCU: 0xCDAE, offset: 0xCDAE, size: 0x8, addend: 0x0, symName: __ZNKSt3__112basic_stringIcNS_11char_traitsIcEENS_9allocatorIcEEE16__get_short_sizeB7v160006Ev, symObjAddr: 0x25CC, symBinAddr: 0x100003670, symSize: 0x34 }
  - { offsetInCU: 0xCDD3, offset: 0xCDD3, size: 0x8, addend: 0x0, symName: __ZNSt3__16vectorINS_4pairINS_12basic_stringIcNS_11char_traitsIcEENS_9allocatorIcEEEES7_EENS5_IS8_EEEC2B7v160006Ev, symObjAddr: 0x2600, symBinAddr: 0x1000036A4, symSize: 0x4C }
  - { offsetInCU: 0xCE01, offset: 0xCE01, size: 0x8, addend: 0x0, symName: __ZNSt3__117__compressed_pairIPNS_4pairINS_12basic_stringIcNS_11char_traitsIcEENS_9allocatorIcEEEES7_EENS5_IS8_EEEC1B7v160006IDnNS_18__default_init_tagEEEOT_OT0_, symObjAddr: 0x264C, symBinAddr: 0x1000036F0, symSize: 0x3C }
  - { offsetInCU: 0xCE58, offset: 0xCE58, size: 0x8, addend: 0x0, symName: __ZNSt3__117__compressed_pairIPNS_4pairINS_12basic_stringIcNS_11char_traitsIcEENS_9allocatorIcEEEES7_EENS5_IS8_EEEC2B7v160006IDnNS_18__default_init_tagEEEOT_OT0_, symObjAddr: 0x2698, symBinAddr: 0x10000373C, symSize: 0x40 }
  - { offsetInCU: 0xCEAF, offset: 0xCEAF, size: 0x8, addend: 0x0, symName: __ZNSt3__122__compressed_pair_elemIPNS_4pairINS_12basic_stringIcNS_11char_traitsIcEENS_9allocatorIcEEEES7_EELi0ELb0EEC2B7v160006IDnvEEOT_, symObjAddr: 0x26D8, symBinAddr: 0x10000377C, symSize: 0x1C }
  - { offsetInCU: 0xCEF0, offset: 0xCEF0, size: 0x8, addend: 0x0, symName: __ZNSt3__122__compressed_pair_elemINS_9allocatorINS_4pairINS_12basic_stringIcNS_11char_traitsIcEENS1_IcEEEES7_EEEELi1ELb1EEC2B7v160006ENS_18__default_init_tagE, symObjAddr: 0x26F4, symBinAddr: 0x100003798, symSize: 0x2C }
  - { offsetInCU: 0xCF24, offset: 0xCF24, size: 0x8, addend: 0x0, symName: __ZNSt3__19allocatorINS_4pairINS_12basic_stringIcNS_11char_traitsIcEENS0_IcEEEES6_EEEC2B7v160006Ev, symObjAddr: 0x2720, symBinAddr: 0x1000037C4, symSize: 0x2C }
  - { offsetInCU: 0xCF4D, offset: 0xCF4D, size: 0x8, addend: 0x0, symName: __ZNSt3__116__non_trivial_ifILb1ENS_9allocatorINS_4pairINS_12basic_stringIcNS_11char_traitsIcEENS1_IcEEEES7_EEEEEC2B7v160006Ev, symObjAddr: 0x274C, symBinAddr: 0x1000037F0, symSize: 0x14 }
  - { offsetInCU: 0xCF76, offset: 0xCF76, size: 0x8, addend: 0x0, symName: __ZNSt3__16vectorINS_4pairINS_12basic_stringIcNS_11char_traitsIcEENS_9allocatorIcEEEES7_EENS5_IS8_EEED2B7v160006Ev, symObjAddr: 0x2760, symBinAddr: 0x100003804, symSize: 0x3C }
  - { offsetInCU: 0xCF9F, offset: 0xCF9F, size: 0x8, addend: 0x0, symName: __ZNSt3__16vectorINS_4pairINS_12basic_stringIcNS_11char_traitsIcEENS_9allocatorIcEEEES7_EENS5_IS8_EEE16__destroy_vectorC1ERSA_, symObjAddr: 0x279C, symBinAddr: 0x100003840, symSize: 0x34 }
  - { offsetInCU: 0xCFD7, offset: 0xCFD7, size: 0x8, addend: 0x0, symName: __ZNSt3__16vectorINS_4pairINS_12basic_stringIcNS_11char_traitsIcEENS_9allocatorIcEEEES7_EENS5_IS8_EEE16__destroy_vectorclB7v160006Ev, symObjAddr: 0x27D0, symBinAddr: 0x100003874, symSize: 0x9C }
  - { offsetInCU: 0xCFFC, offset: 0xCFFC, size: 0x8, addend: 0x0, symName: __ZNSt3__16vectorINS_4pairINS_12basic_stringIcNS_11char_traitsIcEENS_9allocatorIcEEEES7_EENS5_IS8_EEE16__destroy_vectorC2ERSA_, symObjAddr: 0x286C, symBinAddr: 0x100003910, symSize: 0x20 }
  - { offsetInCU: 0xD034, offset: 0xD034, size: 0x8, addend: 0x0, symName: __ZNKSt3__16vectorINS_4pairINS_12basic_stringIcNS_11char_traitsIcEENS_9allocatorIcEEEES7_EENS5_IS8_EEE17__annotate_deleteB7v160006Ev, symObjAddr: 0x288C, symBinAddr: 0x100003930, symSize: 0xD4 }
  - { offsetInCU: 0xD059, offset: 0xD059, size: 0x8, addend: 0x0, symName: __ZNSt3__16vectorINS_4pairINS_12basic_stringIcNS_11char_traitsIcEENS_9allocatorIcEEEES7_EENS5_IS8_EEE7__clearB7v160006Ev, symObjAddr: 0x2970, symBinAddr: 0x100003A14, symSize: 0x28 }
  - { offsetInCU: 0xD07E, offset: 0xD07E, size: 0x8, addend: 0x0, symName: __ZNSt3__116allocator_traitsINS_9allocatorINS_4pairINS_12basic_stringIcNS_11char_traitsIcEENS1_IcEEEES7_EEEEE10deallocateB7v160006ERS9_PS8_m, symObjAddr: 0x2998, symBinAddr: 0x100003A3C, symSize: 0x34 }
  - { offsetInCU: 0xD0C0, offset: 0xD0C0, size: 0x8, addend: 0x0, symName: __ZNSt3__16vectorINS_4pairINS_12basic_stringIcNS_11char_traitsIcEENS_9allocatorIcEEEES7_EENS5_IS8_EEE7__allocB7v160006Ev, symObjAddr: 0x29CC, symBinAddr: 0x100003A70, symSize: 0x28 }
  - { offsetInCU: 0xD0E5, offset: 0xD0E5, size: 0x8, addend: 0x0, symName: __ZNKSt3__16vectorINS_4pairINS_12basic_stringIcNS_11char_traitsIcEENS_9allocatorIcEEEES7_EENS5_IS8_EEE8capacityB7v160006Ev, symObjAddr: 0x29F4, symBinAddr: 0x100003A98, symSize: 0x40 }
  - { offsetInCU: 0xD10A, offset: 0xD10A, size: 0x8, addend: 0x0, symName: __ZNKSt3__16vectorINS_4pairINS_12basic_stringIcNS_11char_traitsIcEENS_9allocatorIcEEEES7_EENS5_IS8_EEE31__annotate_contiguous_containerB7v160006EPKvSC_SC_SC_, symObjAddr: 0x2A34, symBinAddr: 0x100003AD8, symSize: 0x20 }
  - { offsetInCU: 0xD15F, offset: 0xD15F, size: 0x8, addend: 0x0, symName: __ZNKSt3__16vectorINS_4pairINS_12basic_stringIcNS_11char_traitsIcEENS_9allocatorIcEEEES7_EENS5_IS8_EEE4dataB7v160006Ev, symObjAddr: 0x2A54, symBinAddr: 0x100003AF8, symSize: 0x28 }
  - { offsetInCU: 0xD184, offset: 0xD184, size: 0x8, addend: 0x0, symName: __ZNSt3__16vectorINS_4pairINS_12basic_stringIcNS_11char_traitsIcEENS_9allocatorIcEEEES7_EENS5_IS8_EEE22__base_destruct_at_endB7v160006EPS8_, symObjAddr: 0x2A90, symBinAddr: 0x100003B34, symSize: 0xA0 }
  - { offsetInCU: 0xD1C7, offset: 0xD1C7, size: 0x8, addend: 0x0, symName: __ZNSt3__116allocator_traitsINS_9allocatorINS_4pairINS_12basic_stringIcNS_11char_traitsIcEENS1_IcEEEES7_EEEEE7destroyB7v160006IS8_vEEvRS9_PT_, symObjAddr: 0x2B30, symBinAddr: 0x100003BD4, symSize: 0x2C }
  - { offsetInCU: 0xD204, offset: 0xD204, size: 0x8, addend: 0x0, symName: __ZNSt3__19allocatorINS_4pairINS_12basic_stringIcNS_11char_traitsIcEENS0_IcEEEES6_EEE7destroyB7v160006EPS7_, symObjAddr: 0x2B5C, symBinAddr: 0x100003C00, symSize: 0x28 }
  - { offsetInCU: 0xD237, offset: 0xD237, size: 0x8, addend: 0x0, symName: __ZNSt3__19allocatorINS_4pairINS_12basic_stringIcNS_11char_traitsIcEENS0_IcEEEES6_EEE10deallocateB7v160006EPS7_m, symObjAddr: 0x2B84, symBinAddr: 0x100003C28, symSize: 0x74 }
  - { offsetInCU: 0xD278, offset: 0xD278, size: 0x8, addend: 0x0, symName: __ZNSt3__117__compressed_pairIPNS_4pairINS_12basic_stringIcNS_11char_traitsIcEENS_9allocatorIcEEEES7_EENS5_IS8_EEE6secondB7v160006Ev, symObjAddr: 0x2C74, symBinAddr: 0x100003D18, symSize: 0x24 }
  - { offsetInCU: 0xD29D, offset: 0xD29D, size: 0x8, addend: 0x0, symName: __ZNSt3__122__compressed_pair_elemINS_9allocatorINS_4pairINS_12basic_stringIcNS_11char_traitsIcEENS1_IcEEEES7_EEEELi1ELb1EE5__getB7v160006Ev, symObjAddr: 0x2C98, symBinAddr: 0x100003D3C, symSize: 0x14 }
  - { offsetInCU: 0xD2C2, offset: 0xD2C2, size: 0x8, addend: 0x0, symName: __ZNKSt3__16vectorINS_4pairINS_12basic_stringIcNS_11char_traitsIcEENS_9allocatorIcEEEES7_EENS5_IS8_EEE9__end_capB7v160006Ev, symObjAddr: 0x2CAC, symBinAddr: 0x100003D50, symSize: 0x28 }
  - { offsetInCU: 0xD2E7, offset: 0xD2E7, size: 0x8, addend: 0x0, symName: __ZNKSt3__117__compressed_pairIPNS_4pairINS_12basic_stringIcNS_11char_traitsIcEENS_9allocatorIcEEEES7_EENS5_IS8_EEE5firstB7v160006Ev, symObjAddr: 0x2CD4, symBinAddr: 0x100003D78, symSize: 0x24 }
  - { offsetInCU: 0xD30C, offset: 0xD30C, size: 0x8, addend: 0x0, symName: __ZNKSt3__122__compressed_pair_elemIPNS_4pairINS_12basic_stringIcNS_11char_traitsIcEENS_9allocatorIcEEEES7_EELi0ELb0EE5__getB7v160006Ev, symObjAddr: 0x2CF8, symBinAddr: 0x100003D9C, symSize: 0x14 }
  - { offsetInCU: 0xD331, offset: 0xD331, size: 0x8, addend: 0x0, symName: __ZNSt3__113basic_istreamIcNS_11char_traitsIcEEEC2B7v160006EPNS_15basic_streambufIcS2_EE, symObjAddr: 0x2D0C, symBinAddr: 0x100003DB0, symSize: 0x64 }
  - { offsetInCU: 0xD374, offset: 0xD374, size: 0x8, addend: 0x0, symName: __ZNSt3__112basic_stringIcNS_11char_traitsIcEENS_9allocatorIcEEEC2B7v160006Ev, symObjAddr: 0x2D70, symBinAddr: 0x100003E14, symSize: 0x44 }
  - { offsetInCU: 0xD39D, offset: 0xD39D, size: 0x8, addend: 0x0, symName: __ZNSt3__112basic_stringIcNS_11char_traitsIcEENS_9allocatorIcEEE14__default_initB7v160006Ev, symObjAddr: 0x2DB4, symBinAddr: 0x100003E58, symSize: 0xB0 }
  - { offsetInCU: 0xD3EF, offset: 0xD3EF, size: 0x8, addend: 0x0, symName: __ZNSt3__117__compressed_pairINS_12basic_stringIcNS_11char_traitsIcEENS_9allocatorIcEEE5__repES5_E5firstB7v160006Ev, symObjAddr: 0x2E64, symBinAddr: 0x100003F08, symSize: 0x24 }
  - { offsetInCU: 0xD414, offset: 0xD414, size: 0x8, addend: 0x0, symName: __ZNSt3__112basic_stringIcNS_11char_traitsIcEENS_9allocatorIcEEE11__recommendB7v160006Em, symObjAddr: 0x2E88, symBinAddr: 0x100003F2C, symSize: 0x9C }
  - { offsetInCU: 0xD447, offset: 0xD447, size: 0x8, addend: 0x0, symName: __ZNSt3__116allocator_traitsINS_9allocatorIcEEE8allocateB7v160006ERS2_m, symObjAddr: 0x2F24, symBinAddr: 0x100003FC8, symSize: 0x2C }
  - { offsetInCU: 0xD47A, offset: 0xD47A, size: 0x8, addend: 0x0, symName: __ZNSt3__112basic_stringIcNS_11char_traitsIcEENS_9allocatorIcEEE7__allocB7v160006Ev, symObjAddr: 0x2F50, symBinAddr: 0x100003FF4, symSize: 0x24 }
  - { offsetInCU: 0xD49F, offset: 0xD49F, size: 0x8, addend: 0x0, symName: __ZNSt3__112basic_stringIcNS_11char_traitsIcEENS_9allocatorIcEEE16__begin_lifetimeB7v160006EPcm, symObjAddr: 0x2F74, symBinAddr: 0x100004018, symSize: 0x14 }
  - { offsetInCU: 0xD4D2, offset: 0xD4D2, size: 0x8, addend: 0x0, symName: __ZNSt3__112basic_stringIcNS_11char_traitsIcEENS_9allocatorIcEEE18__set_long_pointerB7v160006EPc, symObjAddr: 0x2F88, symBinAddr: 0x10000402C, symSize: 0x38 }
  - { offsetInCU: 0xD506, offset: 0xD506, size: 0x8, addend: 0x0, symName: __ZNSt3__112basic_stringIcNS_11char_traitsIcEENS_9allocatorIcEEE14__set_long_capB7v160006Em, symObjAddr: 0x2FC0, symBinAddr: 0x100004064, symSize: 0x70 }
  - { offsetInCU: 0xD53A, offset: 0xD53A, size: 0x8, addend: 0x0, symName: __ZNSt3__112basic_stringIcNS_11char_traitsIcEENS_9allocatorIcEEE15__set_long_sizeB7v160006Em, symObjAddr: 0x3030, symBinAddr: 0x1000040D4, symSize: 0x38 }
  - { offsetInCU: 0xD56E, offset: 0xD56E, size: 0x8, addend: 0x0, symName: __ZNSt3__122__compressed_pair_elemINS_12basic_stringIcNS_11char_traitsIcEENS_9allocatorIcEEE5__repELi0ELb0EE5__getB7v160006Ev, symObjAddr: 0x3068, symBinAddr: 0x10000410C, symSize: 0x14 }
  - { offsetInCU: 0xD593, offset: 0xD593, size: 0x8, addend: 0x0, symName: __ZNSt3__112basic_stringIcNS_11char_traitsIcEENS_9allocatorIcEEE10__align_itB7v160006ILm16EEEmm, symObjAddr: 0x307C, symBinAddr: 0x100004120, symSize: 0x1C }
  - { offsetInCU: 0xD5C1, offset: 0xD5C1, size: 0x8, addend: 0x0, symName: __ZNSt3__19allocatorIcE8allocateB7v160006Em, symObjAddr: 0x3098, symBinAddr: 0x10000413C, symSize: 0x84 }
  - { offsetInCU: 0xD5FE, offset: 0xD5FE, size: 0x8, addend: 0x0, symName: __ZNSt3__116allocator_traitsINS_9allocatorIcEEE8max_sizeB7v160006IS2_vEEmRKS2_, symObjAddr: 0x311C, symBinAddr: 0x1000041C0, symSize: 0x24 }
  - { offsetInCU: 0xD62C, offset: 0xD62C, size: 0x8, addend: 0x0, symName: __ZNKSt3__19allocatorIcE8max_sizeB7v160006Ev, symObjAddr: 0x319C, symBinAddr: 0x100004240, symSize: 0x14 }
  - { offsetInCU: 0xD651, offset: 0xD651, size: 0x8, addend: 0x0, symName: __ZNSt3__117__compressed_pairINS_12basic_stringIcNS_11char_traitsIcEENS_9allocatorIcEEE5__repES5_E6secondB7v160006Ev, symObjAddr: 0x31D4, symBinAddr: 0x100004278, symSize: 0x24 }
  - { offsetInCU: 0xD676, offset: 0xD676, size: 0x8, addend: 0x0, symName: __ZNSt3__122__compressed_pair_elemINS_9allocatorIcEELi1ELb1EE5__getB7v160006Ev, symObjAddr: 0x31F8, symBinAddr: 0x10000429C, symSize: 0x14 }
  - { offsetInCU: 0xD6B9, offset: 0xD6B9, size: 0x8, addend: 0x0, symName: __ZNKSt3__113basic_istreamIcNS_11char_traitsIcEEE6sentrycvbB7v160006Ev, symObjAddr: 0x3444, symBinAddr: 0x1000044E8, symSize: 0x1C }
  - { offsetInCU: 0xD6DD, offset: 0xD6DD, size: 0x8, addend: 0x0, symName: __ZNSt3__112basic_stringIcNS_11char_traitsIcEENS_9allocatorIcEEE5clearB7v160006Ev, symObjAddr: 0x3460, symBinAddr: 0x100004504, symSize: 0x9C }
  - { offsetInCU: 0xD704, offset: 0xD704, size: 0x8, addend: 0x0, symName: __ZNSt3__115basic_streambufIcNS_11char_traitsIcEEE6sbumpcB7v160006Ev, symObjAddr: 0x34FC, symBinAddr: 0x1000045A0, symSize: 0x78 }
  - { offsetInCU: 0xD729, offset: 0xD729, size: 0x8, addend: 0x0, symName: __ZNSt3__111char_traitsIcE12to_char_typeEi, symObjAddr: 0x3574, symBinAddr: 0x100004618, symSize: 0x18 }
  - { offsetInCU: 0xD74C, offset: 0xD74C, size: 0x8, addend: 0x0, symName: __ZNSt3__111char_traitsIcE2eqEcc, symObjAddr: 0x358C, symBinAddr: 0x100004630, symSize: 0x28 }
  - { offsetInCU: 0xD77D, offset: 0xD77D, size: 0x8, addend: 0x0, symName: __ZNKSt3__112basic_stringIcNS_11char_traitsIcEENS_9allocatorIcEEE8max_sizeB7v160006Ev, symObjAddr: 0x35B4, symBinAddr: 0x100004658, symSize: 0xAC }
  - { offsetInCU: 0xD7CF, offset: 0xD7CF, size: 0x8, addend: 0x0, symName: __ZNSt3__18ios_base18__setstate_nothrowB7v160006Ej, symObjAddr: 0x3660, symBinAddr: 0x100004704, symSize: 0x64 }
  - { offsetInCU: 0xD803, offset: 0xD803, size: 0x8, addend: 0x0, symName: __ZNKSt3__19basic_iosIcNS_11char_traitsIcEEE10exceptionsB7v160006Ev, symObjAddr: 0x36C4, symBinAddr: 0x100004768, symSize: 0x24 }
  - { offsetInCU: 0xD828, offset: 0xD828, size: 0x8, addend: 0x0, symName: __ZNSt3__111char_traitsIcE6assignERcRKc, symObjAddr: 0x36F8, symBinAddr: 0x10000479C, symSize: 0x24 }
  - { offsetInCU: 0xD859, offset: 0xD859, size: 0x8, addend: 0x0, symName: __ZNSt3__112basic_stringIcNS_11char_traitsIcEENS_9allocatorIcEEE18__get_long_pointerB7v160006Ev, symObjAddr: 0x371C, symBinAddr: 0x1000047C0, symSize: 0x28 }
  - { offsetInCU: 0xD87E, offset: 0xD87E, size: 0x8, addend: 0x0, symName: __ZNSt3__112basic_stringIcNS_11char_traitsIcEENS_9allocatorIcEEE19__get_short_pointerB7v160006Ev, symObjAddr: 0x3744, symBinAddr: 0x1000047E8, symSize: 0x28 }
  - { offsetInCU: 0xD8A3, offset: 0xD8A3, size: 0x8, addend: 0x0, symName: __ZNSt3__112basic_stringIcNS_11char_traitsIcEENS_9allocatorIcEEE16__set_short_sizeB7v160006Em, symObjAddr: 0x376C, symBinAddr: 0x100004810, symSize: 0x78 }
  - { offsetInCU: 0xD8D7, offset: 0xD8D7, size: 0x8, addend: 0x0, symName: __ZNSt3__114pointer_traitsIPcE10pointer_toB7v160006ERc, symObjAddr: 0x37E4, symBinAddr: 0x100004888, symSize: 0x14 }
  - { offsetInCU: 0xD8FA, offset: 0xD8FA, size: 0x8, addend: 0x0, symName: __ZNSt3__111char_traitsIcE11to_int_typeEc, symObjAddr: 0x37F8, symBinAddr: 0x10000489C, symSize: 0x14 }
  - { offsetInCU: 0xD91D, offset: 0xD91D, size: 0x8, addend: 0x0, symName: __ZNKSt3__112basic_stringIcNS_11char_traitsIcEENS_9allocatorIcEEE7__allocB7v160006Ev, symObjAddr: 0x380C, symBinAddr: 0x1000048B0, symSize: 0x24 }
  - { offsetInCU: 0xD942, offset: 0xD942, size: 0x8, addend: 0x0, symName: __ZNSt3__114numeric_limitsImE3maxB7v160006Ev, symObjAddr: 0x3830, symBinAddr: 0x1000048D4, symSize: 0x14 }
  - { offsetInCU: 0xD956, offset: 0xD956, size: 0x8, addend: 0x0, symName: __ZNKSt3__117__compressed_pairINS_12basic_stringIcNS_11char_traitsIcEENS_9allocatorIcEEE5__repES5_E6secondB7v160006Ev, symObjAddr: 0x3844, symBinAddr: 0x1000048E8, symSize: 0x24 }
  - { offsetInCU: 0xD97B, offset: 0xD97B, size: 0x8, addend: 0x0, symName: __ZNKSt3__122__compressed_pair_elemINS_9allocatorIcEELi1ELb1EE5__getB7v160006Ev, symObjAddr: 0x3868, symBinAddr: 0x10000490C, symSize: 0x14 }
  - { offsetInCU: 0xD9A0, offset: 0xD9A0, size: 0x8, addend: 0x0, symName: __ZNSt3__123__libcpp_numeric_limitsImLb1EE3maxB7v160006Ev, symObjAddr: 0x387C, symBinAddr: 0x100004920, symSize: 0x8 }
  - { offsetInCU: 0xD9B4, offset: 0xD9B4, size: 0x8, addend: 0x0, symName: __ZNKSt3__18ios_base10exceptionsB7v160006Ev, symObjAddr: 0x3884, symBinAddr: 0x100004928, symSize: 0x18 }
  - { offsetInCU: 0xD9DB, offset: 0xD9DB, size: 0x8, addend: 0x0, symName: __ZNSt3__19allocatorIcEC1B7v160006Ev, symObjAddr: 0x389C, symBinAddr: 0x100004940, symSize: 0x2C }
  - { offsetInCU: 0xDA04, offset: 0xDA04, size: 0x8, addend: 0x0, symName: __ZNSt3__111char_traitsIcE4findEPKcmRS2_, symObjAddr: 0x3B00, symBinAddr: 0x100004BA4, symSize: 0x84 }
  - { offsetInCU: 0xDA43, offset: 0xDA43, size: 0x8, addend: 0x0, symName: __ZNSt3__111char_traitsIcE7compareEPKcS3_m, symObjAddr: 0x3B84, symBinAddr: 0x100004C28, symSize: 0x80 }
  - { offsetInCU: 0xDA82, offset: 0xDA82, size: 0x8, addend: 0x0, symName: __ZNKSt3__19basic_iosIcNS_11char_traitsIcEEE4failB7v160006Ev, symObjAddr: 0x3C6C, symBinAddr: 0x100004D10, symSize: 0x28 }
  - { offsetInCU: 0xDAA7, offset: 0xDAA7, size: 0x8, addend: 0x0, symName: __ZNKSt3__18ios_base4failB7v160006Ev, symObjAddr: 0x3C94, symBinAddr: 0x100004D38, symSize: 0x28 }
  - { offsetInCU: 0xDACE, offset: 0xDACE, size: 0x8, addend: 0x0, symName: __ZNSt3__14pairINS_12basic_stringIcNS_11char_traitsIcEENS_9allocatorIcEEEES6_EC1B7v160006ERKS6_S9_, symObjAddr: 0x3CBC, symBinAddr: 0x100004D60, symSize: 0x3C }
  - { offsetInCU: 0xDB13, offset: 0xDB13, size: 0x8, addend: 0x0, symName: __ZNSt3__14pairINS_12basic_stringIcNS_11char_traitsIcEENS_9allocatorIcEEEES6_EC2B7v160006ERKS6_S9_, symObjAddr: 0x3CF8, symBinAddr: 0x100004D9C, symSize: 0x78 }
  - { offsetInCU: 0xDB58, offset: 0xDB58, size: 0x8, addend: 0x0, symName: __ZNSt3__16vectorINS_4pairINS_12basic_stringIcNS_11char_traitsIcEENS_9allocatorIcEEEES7_EENS5_IS8_EEE9__end_capB7v160006Ev, symObjAddr: 0x3D70, symBinAddr: 0x100004E14, symSize: 0x28 }
  - { offsetInCU: 0xDB7D, offset: 0xDB7D, size: 0x8, addend: 0x0, symName: __ZNSt3__16vectorINS_4pairINS_12basic_stringIcNS_11char_traitsIcEENS_9allocatorIcEEEES7_EENS5_IS8_EEE22__construct_one_at_endB7v160006IJS8_EEEvDpOT_, symObjAddr: 0x3D98, symBinAddr: 0x100004E3C, symSize: 0x98 }
  - { offsetInCU: 0xDBCA, offset: 0xDBCA, size: 0x8, addend: 0x0, symName: __ZNSt3__16vectorINS_4pairINS_12basic_stringIcNS_11char_traitsIcEENS_9allocatorIcEEEES7_EENS5_IS8_EEE21__push_back_slow_pathIS8_EEvOT_, symObjAddr: 0x3E30, symBinAddr: 0x100004ED4, symSize: 0xE0 }
  - { offsetInCU: 0xDC27, offset: 0xDC27, size: 0x8, addend: 0x0, symName: __ZNSt3__117__compressed_pairIPNS_4pairINS_12basic_stringIcNS_11char_traitsIcEENS_9allocatorIcEEEES7_EENS5_IS8_EEE5firstB7v160006Ev, symObjAddr: 0x3F10, symBinAddr: 0x100004FB4, symSize: 0x24 }
  - { offsetInCU: 0xDC4C, offset: 0xDC4C, size: 0x8, addend: 0x0, symName: __ZNSt3__122__compressed_pair_elemIPNS_4pairINS_12basic_stringIcNS_11char_traitsIcEENS_9allocatorIcEEEES7_EELi0ELb0EE5__getB7v160006Ev, symObjAddr: 0x3F34, symBinAddr: 0x100004FD8, symSize: 0x14 }
  - { offsetInCU: 0xDC8A, offset: 0xDC8A, size: 0x8, addend: 0x0, symName: __ZNSt3__16vectorINS_4pairINS_12basic_stringIcNS_11char_traitsIcEENS_9allocatorIcEEEES7_EENS5_IS8_EEE21_ConstructTransactionC1B7v160006ERSA_m, symObjAddr: 0x3F48, symBinAddr: 0x100004FEC, symSize: 0x3C }
  - { offsetInCU: 0xDCD1, offset: 0xDCD1, size: 0x8, addend: 0x0, symName: __ZNSt3__116allocator_traitsINS_9allocatorINS_4pairINS_12basic_stringIcNS_11char_traitsIcEENS1_IcEEEES7_EEEEE9constructB7v160006IS8_JS8_EvEEvRS9_PT_DpOT0_, symObjAddr: 0x3F84, symBinAddr: 0x100005028, symSize: 0x34 }
  - { offsetInCU: 0xDD28, offset: 0xDD28, size: 0x8, addend: 0x0, symName: __ZNSt3__16vectorINS_4pairINS_12basic_stringIcNS_11char_traitsIcEENS_9allocatorIcEEEES7_EENS5_IS8_EEE21_ConstructTransactionD1B7v160006Ev, symObjAddr: 0x3FB8, symBinAddr: 0x10000505C, symSize: 0x2C }
  - { offsetInCU: 0xDD51, offset: 0xDD51, size: 0x8, addend: 0x0, symName: __ZNSt3__16vectorINS_4pairINS_12basic_stringIcNS_11char_traitsIcEENS_9allocatorIcEEEES7_EENS5_IS8_EEE21_ConstructTransactionC2B7v160006ERSA_m, symObjAddr: 0x3FE4, symBinAddr: 0x100005088, symSize: 0x4C }
  - { offsetInCU: 0xDD98, offset: 0xDD98, size: 0x8, addend: 0x0, symName: __ZNSt3__19allocatorINS_4pairINS_12basic_stringIcNS_11char_traitsIcEENS0_IcEEEES6_EEE9constructB7v160006IS7_JS7_EEEvPT_DpOT0_, symObjAddr: 0x4030, symBinAddr: 0x1000050D4, symSize: 0x30 }
  - { offsetInCU: 0xDDED, offset: 0xDDED, size: 0x8, addend: 0x0, symName: __ZNSt3__14pairINS_12basic_stringIcNS_11char_traitsIcEENS_9allocatorIcEEEES6_EC1EOS7_, symObjAddr: 0x4060, symBinAddr: 0x100005104, symSize: 0x34 }
  - { offsetInCU: 0xDE21, offset: 0xDE21, size: 0x8, addend: 0x0, symName: __ZNSt3__14pairINS_12basic_stringIcNS_11char_traitsIcEENS_9allocatorIcEEEES6_EC2EOS7_, symObjAddr: 0x4094, symBinAddr: 0x100005138, symSize: 0x78 }
  - { offsetInCU: 0xDE55, offset: 0xDE55, size: 0x8, addend: 0x0, symName: __ZNSt3__16vectorINS_4pairINS_12basic_stringIcNS_11char_traitsIcEENS_9allocatorIcEEEES7_EENS5_IS8_EEE21_ConstructTransactionD2B7v160006Ev, symObjAddr: 0x410C, symBinAddr: 0x1000051B0, symSize: 0x20 }
  - { offsetInCU: 0xDE7D, offset: 0xDE7D, size: 0x8, addend: 0x0, symName: __ZNKSt3__16vectorINS_4pairINS_12basic_stringIcNS_11char_traitsIcEENS_9allocatorIcEEEES7_EENS5_IS8_EEE11__recommendB7v160006Em, symObjAddr: 0x412C, symBinAddr: 0x1000051D0, symSize: 0xB4 }
  - { offsetInCU: 0xDED1, offset: 0xDED1, size: 0x8, addend: 0x0, symName: __ZNSt3__114__split_bufferINS_4pairINS_12basic_stringIcNS_11char_traitsIcEENS_9allocatorIcEEEES7_EERNS5_IS8_EEEC1EmmSA_, symObjAddr: 0x41E0, symBinAddr: 0x100005284, symSize: 0x44 }
  - { offsetInCU: 0xDF26, offset: 0xDF26, size: 0x8, addend: 0x0, symName: __ZNSt3__114__split_bufferINS_4pairINS_12basic_stringIcNS_11char_traitsIcEENS_9allocatorIcEEEES7_EERNS5_IS8_EEED1Ev, symObjAddr: 0x433C, symBinAddr: 0x1000053E0, symSize: 0x2C }
  - { offsetInCU: 0xDF50, offset: 0xDF50, size: 0x8, addend: 0x0, symName: __ZNKSt3__16vectorINS_4pairINS_12basic_stringIcNS_11char_traitsIcEENS_9allocatorIcEEEES7_EENS5_IS8_EEE8max_sizeEv, symObjAddr: 0x4368, symBinAddr: 0x10000540C, symSize: 0x74 }
  - { offsetInCU: 0xDF77, offset: 0xDF77, size: 0x8, addend: 0x0, symName: __ZNKSt3__16vectorINS_4pairINS_12basic_stringIcNS_11char_traitsIcEENS_9allocatorIcEEEES7_EENS5_IS8_EEE20__throw_length_errorB7v160006Ev, symObjAddr: 0x43DC, symBinAddr: 0x100005480, symSize: 0x1C }
  - { offsetInCU: 0xDFA6, offset: 0xDFA6, size: 0x8, addend: 0x0, symName: __ZNSt3__116allocator_traitsINS_9allocatorINS_4pairINS_12basic_stringIcNS_11char_traitsIcEENS1_IcEEEES7_EEEEE8max_sizeB7v160006IS9_vEEmRKS9_, symObjAddr: 0x4450, symBinAddr: 0x1000054F4, symSize: 0x24 }
  - { offsetInCU: 0xDFD4, offset: 0xDFD4, size: 0x8, addend: 0x0, symName: __ZNKSt3__16vectorINS_4pairINS_12basic_stringIcNS_11char_traitsIcEENS_9allocatorIcEEEES7_EENS5_IS8_EEE7__allocB7v160006Ev, symObjAddr: 0x4474, symBinAddr: 0x100005518, symSize: 0x28 }
  - { offsetInCU: 0xDFF9, offset: 0xDFF9, size: 0x8, addend: 0x0, symName: __ZNSt3__114numeric_limitsIlE3maxB7v160006Ev, symObjAddr: 0x449C, symBinAddr: 0x100005540, symSize: 0x14 }
  - { offsetInCU: 0xE021, offset: 0xE021, size: 0x8, addend: 0x0, symName: __ZNKSt3__16__lessImmEclB7v160006ERKmS3_, symObjAddr: 0x4504, symBinAddr: 0x1000055A8, symSize: 0x34 }
  - { offsetInCU: 0xE062, offset: 0xE062, size: 0x8, addend: 0x0, symName: __ZNKSt3__19allocatorINS_4pairINS_12basic_stringIcNS_11char_traitsIcEENS0_IcEEEES6_EEE8max_sizeB7v160006Ev, symObjAddr: 0x4538, symBinAddr: 0x1000055DC, symSize: 0x18 }
  - { offsetInCU: 0xE087, offset: 0xE087, size: 0x8, addend: 0x0, symName: __ZNKSt3__117__compressed_pairIPNS_4pairINS_12basic_stringIcNS_11char_traitsIcEENS_9allocatorIcEEEES7_EENS5_IS8_EEE6secondB7v160006Ev, symObjAddr: 0x4550, symBinAddr: 0x1000055F4, symSize: 0x24 }
  - { offsetInCU: 0xE0AC, offset: 0xE0AC, size: 0x8, addend: 0x0, symName: __ZNKSt3__122__compressed_pair_elemINS_9allocatorINS_4pairINS_12basic_stringIcNS_11char_traitsIcEENS1_IcEEEES7_EEEELi1ELb1EE5__getB7v160006Ev, symObjAddr: 0x4574, symBinAddr: 0x100005618, symSize: 0x14 }
  - { offsetInCU: 0xE0D1, offset: 0xE0D1, size: 0x8, addend: 0x0, symName: __ZNSt3__123__libcpp_numeric_limitsIlLb1EE3maxB7v160006Ev, symObjAddr: 0x4588, symBinAddr: 0x10000562C, symSize: 0x8 }
  - { offsetInCU: 0xE0E5, offset: 0xE0E5, size: 0x8, addend: 0x0, symName: __ZNSt12length_errorC1B7v160006EPKc, symObjAddr: 0x45F4, symBinAddr: 0x100005698, symSize: 0x34 }
  - { offsetInCU: 0xE11C, offset: 0xE11C, size: 0x8, addend: 0x0, symName: __ZNSt12length_errorC2B7v160006EPKc, symObjAddr: 0x4628, symBinAddr: 0x1000056CC, symSize: 0x4C }
  - { offsetInCU: 0xE153, offset: 0xE153, size: 0x8, addend: 0x0, symName: __ZNSt3__114__split_bufferINS_4pairINS_12basic_stringIcNS_11char_traitsIcEENS_9allocatorIcEEEES7_EERNS5_IS8_EEEC2EmmSA_, symObjAddr: 0x46C8, symBinAddr: 0x10000576C, symSize: 0xE0 }
  - { offsetInCU: 0xE1C6, offset: 0xE1C6, size: 0x8, addend: 0x0, symName: __ZNSt3__117__compressed_pairIPNS_4pairINS_12basic_stringIcNS_11char_traitsIcEENS_9allocatorIcEEEES7_EERNS5_IS8_EEEC1B7v160006IDnSB_EEOT_OT0_, symObjAddr: 0x47A8, symBinAddr: 0x10000584C, symSize: 0x3C }
  - { offsetInCU: 0xE21D, offset: 0xE21D, size: 0x8, addend: 0x0, symName: __ZNSt3__114__split_bufferINS_4pairINS_12basic_stringIcNS_11char_traitsIcEENS_9allocatorIcEEEES7_EERNS5_IS8_EEE7__allocB7v160006Ev, symObjAddr: 0x4824, symBinAddr: 0x1000058C8, symSize: 0x28 }
  - { offsetInCU: 0xE242, offset: 0xE242, size: 0x8, addend: 0x0, symName: __ZNSt3__114__split_bufferINS_4pairINS_12basic_stringIcNS_11char_traitsIcEENS_9allocatorIcEEEES7_EERNS5_IS8_EEE9__end_capB7v160006Ev, symObjAddr: 0x484C, symBinAddr: 0x1000058F0, symSize: 0x28 }
  - { offsetInCU: 0xE267, offset: 0xE267, size: 0x8, addend: 0x0, symName: __ZNSt3__117__compressed_pairIPNS_4pairINS_12basic_stringIcNS_11char_traitsIcEENS_9allocatorIcEEEES7_EERNS5_IS8_EEEC2B7v160006IDnSB_EEOT_OT0_, symObjAddr: 0x4874, symBinAddr: 0x100005918, symSize: 0x48 }
  - { offsetInCU: 0xE2BE, offset: 0xE2BE, size: 0x8, addend: 0x0, symName: __ZNSt3__122__compressed_pair_elemIRNS_9allocatorINS_4pairINS_12basic_stringIcNS_11char_traitsIcEENS1_IcEEEES7_EEEELi1ELb0EEC2B7v160006ISA_vEEOT_, symObjAddr: 0x48BC, symBinAddr: 0x100005960, symSize: 0x20 }
  - { offsetInCU: 0xE2FF, offset: 0xE2FF, size: 0x8, addend: 0x0, symName: __ZNSt3__19allocatorINS_4pairINS_12basic_stringIcNS_11char_traitsIcEENS0_IcEEEES6_EEE8allocateB7v160006Em, symObjAddr: 0x48DC, symBinAddr: 0x100005980, symSize: 0x8C }
  - { offsetInCU: 0xE332, offset: 0xE332, size: 0x8, addend: 0x0, symName: __ZNSt3__117__compressed_pairIPNS_4pairINS_12basic_stringIcNS_11char_traitsIcEENS_9allocatorIcEEEES7_EERNS5_IS8_EEE6secondB7v160006Ev, symObjAddr: 0x4968, symBinAddr: 0x100005A0C, symSize: 0x28 }
  - { offsetInCU: 0xE357, offset: 0xE357, size: 0x8, addend: 0x0, symName: __ZNSt3__122__compressed_pair_elemIRNS_9allocatorINS_4pairINS_12basic_stringIcNS_11char_traitsIcEENS1_IcEEEES7_EEEELi1ELb0EE5__getB7v160006Ev, symObjAddr: 0x4990, symBinAddr: 0x100005A34, symSize: 0x18 }
  - { offsetInCU: 0xE37C, offset: 0xE37C, size: 0x8, addend: 0x0, symName: __ZNSt3__117__compressed_pairIPNS_4pairINS_12basic_stringIcNS_11char_traitsIcEENS_9allocatorIcEEEES7_EERNS5_IS8_EEE5firstB7v160006Ev, symObjAddr: 0x49A8, symBinAddr: 0x100005A4C, symSize: 0x24 }
  - { offsetInCU: 0xE3A1, offset: 0xE3A1, size: 0x8, addend: 0x0, symName: __ZNSt3__116reverse_iteratorIPNS_4pairINS_12basic_stringIcNS_11char_traitsIcEENS_9allocatorIcEEEES7_EEEC1B7v160006ES9_, symObjAddr: 0x4B00, symBinAddr: 0x100005BA4, symSize: 0x34 }
  - { offsetInCU: 0xE3D8, offset: 0xE3D8, size: 0x8, addend: 0x0, symName: __ZNKSt3__116reverse_iteratorIPNS_4pairINS_12basic_stringIcNS_11char_traitsIcEENS_9allocatorIcEEEES7_EEE4baseB7v160006Ev, symObjAddr: 0x4B34, symBinAddr: 0x100005BD8, symSize: 0x18 }
  - { offsetInCU: 0xE3FD, offset: 0xE3FD, size: 0x8, addend: 0x0, symName: __ZNKSt3__16vectorINS_4pairINS_12basic_stringIcNS_11char_traitsIcEENS_9allocatorIcEEEES7_EENS5_IS8_EEE14__annotate_newB7v160006Em, symObjAddr: 0x4B88, symBinAddr: 0x100005C2C, symSize: 0xC8 }
  - { offsetInCU: 0xE431, offset: 0xE431, size: 0x8, addend: 0x0, symName: __ZNSt3__129_AllocatorDestroyRangeReverseINS_9allocatorINS_4pairINS_12basic_stringIcNS_11char_traitsIcEENS1_IcEEEES7_EEEENS_16reverse_iteratorIPS8_EEEC1B7v160006ERS9_RSC_SF_, symObjAddr: 0x4CAC, symBinAddr: 0x100005D50, symSize: 0x44 }
  - { offsetInCU: 0xE487, offset: 0xE487, size: 0x8, addend: 0x0, symName: __ZNSt3__116allocator_traitsINS_9allocatorINS_4pairINS_12basic_stringIcNS_11char_traitsIcEENS1_IcEEEES7_EEEEE9constructB7v160006IS8_JRKS8_EvEEvRS9_PT_DpOT0_, symObjAddr: 0x4D38, symBinAddr: 0x100005DDC, symSize: 0x34 }
  - { offsetInCU: 0xE4DE, offset: 0xE4DE, size: 0x8, addend: 0x0, symName: __ZNKSt3__116reverse_iteratorIPNS_4pairINS_12basic_stringIcNS_11char_traitsIcEENS_9allocatorIcEEEES7_EEEdeB7v160006Ev, symObjAddr: 0x4D90, symBinAddr: 0x100005E34, symSize: 0x28 }
  - { offsetInCU: 0xE511, offset: 0xE511, size: 0x8, addend: 0x0, symName: __ZNSt3__116reverse_iteratorIPNS_4pairINS_12basic_stringIcNS_11char_traitsIcEENS_9allocatorIcEEEES7_EEEppB7v160006Ev, symObjAddr: 0x4DB8, symBinAddr: 0x100005E5C, symSize: 0x20 }
  - { offsetInCU: 0xE536, offset: 0xE536, size: 0x8, addend: 0x0, symName: __ZNSt3__128__exception_guard_exceptionsINS_29_AllocatorDestroyRangeReverseINS_9allocatorINS_4pairINS_12basic_stringIcNS_11char_traitsIcEENS2_IcEEEES8_EEEENS_16reverse_iteratorIPS9_EEEEE10__completeB7v160006Ev, symObjAddr: 0x4DD8, symBinAddr: 0x100005E7C, symSize: 0x1C }
  - { offsetInCU: 0xE55B, offset: 0xE55B, size: 0x8, addend: 0x0, symName: __ZNSt3__128__exception_guard_exceptionsINS_29_AllocatorDestroyRangeReverseINS_9allocatorINS_4pairINS_12basic_stringIcNS_11char_traitsIcEENS2_IcEEEES8_EEEENS_16reverse_iteratorIPS9_EEEEED1B7v160006Ev, symObjAddr: 0x4DF4, symBinAddr: 0x100005E98, symSize: 0x2C }
  - { offsetInCU: 0xE584, offset: 0xE584, size: 0x8, addend: 0x0, symName: __ZNSt3__128__exception_guard_exceptionsINS_29_AllocatorDestroyRangeReverseINS_9allocatorINS_4pairINS_12basic_stringIcNS_11char_traitsIcEENS2_IcEEEES8_EEEENS_16reverse_iteratorIPS9_EEEEEC1B7v160006ESE_, symObjAddr: 0x4E20, symBinAddr: 0x100005EC4, symSize: 0x34 }
  - { offsetInCU: 0xE5BC, offset: 0xE5BC, size: 0x8, addend: 0x0, symName: __ZNSt3__128__exception_guard_exceptionsINS_29_AllocatorDestroyRangeReverseINS_9allocatorINS_4pairINS_12basic_stringIcNS_11char_traitsIcEENS2_IcEEEES8_EEEENS_16reverse_iteratorIPS9_EEEEEC2B7v160006ESE_, symObjAddr: 0x4E54, symBinAddr: 0x100005EF8, symSize: 0x30 }
  - { offsetInCU: 0xE5F4, offset: 0xE5F4, size: 0x8, addend: 0x0, symName: __ZNSt3__129_AllocatorDestroyRangeReverseINS_9allocatorINS_4pairINS_12basic_stringIcNS_11char_traitsIcEENS1_IcEEEES7_EEEENS_16reverse_iteratorIPS8_EEEC2B7v160006ERS9_RSC_SF_, symObjAddr: 0x4E84, symBinAddr: 0x100005F28, symSize: 0x38 }
  - { offsetInCU: 0xE64A, offset: 0xE64A, size: 0x8, addend: 0x0, symName: __ZNSt3__19allocatorINS_4pairINS_12basic_stringIcNS_11char_traitsIcEENS0_IcEEEES6_EEE9constructB7v160006IS7_JRKS7_EEEvPT_DpOT0_, symObjAddr: 0x4EBC, symBinAddr: 0x100005F60, symSize: 0x30 }
  - { offsetInCU: 0xE69F, offset: 0xE69F, size: 0x8, addend: 0x0, symName: __ZNSt3__14pairINS_12basic_stringIcNS_11char_traitsIcEENS_9allocatorIcEEEES6_EC1ERKS7_, symObjAddr: 0x4EEC, symBinAddr: 0x100005F90, symSize: 0x34 }
  - { offsetInCU: 0xE6D3, offset: 0xE6D3, size: 0x8, addend: 0x0, symName: __ZNSt3__14pairINS_12basic_stringIcNS_11char_traitsIcEENS_9allocatorIcEEEES6_EC2ERKS7_, symObjAddr: 0x4F20, symBinAddr: 0x100005FC4, symSize: 0x78 }
  - { offsetInCU: 0xE70C, offset: 0xE70C, size: 0x8, addend: 0x0, symName: __ZNSt3__119__to_address_helperINS_16reverse_iteratorIPNS_4pairINS_12basic_stringIcNS_11char_traitsIcEENS_9allocatorIcEEEES8_EEEEvE6__callB7v160006ERKSB_, symObjAddr: 0x4F98, symBinAddr: 0x10000603C, symSize: 0x4C }
  - { offsetInCU: 0xE72F, offset: 0xE72F, size: 0x8, addend: 0x0, symName: __ZNKSt3__116reverse_iteratorIPNS_4pairINS_12basic_stringIcNS_11char_traitsIcEENS_9allocatorIcEEEES7_EEEptB7v160006Ev, symObjAddr: 0x4FE4, symBinAddr: 0x100006088, symSize: 0x24 }
  - { offsetInCU: 0xE754, offset: 0xE754, size: 0x8, addend: 0x0, symName: __ZNSt3__128__exception_guard_exceptionsINS_29_AllocatorDestroyRangeReverseINS_9allocatorINS_4pairINS_12basic_stringIcNS_11char_traitsIcEENS2_IcEEEES8_EEEENS_16reverse_iteratorIPS9_EEEEED2B7v160006Ev, symObjAddr: 0x5008, symBinAddr: 0x1000060AC, symSize: 0x48 }
  - { offsetInCU: 0xE77D, offset: 0xE77D, size: 0x8, addend: 0x0, symName: __ZNKSt3__129_AllocatorDestroyRangeReverseINS_9allocatorINS_4pairINS_12basic_stringIcNS_11char_traitsIcEENS1_IcEEEES7_EEEENS_16reverse_iteratorIPS8_EEEclB7v160006Ev, symObjAddr: 0x5050, symBinAddr: 0x1000060F4, symSize: 0xB4 }
  - { offsetInCU: 0xE7A3, offset: 0xE7A3, size: 0x8, addend: 0x0, symName: __ZNSt3__116reverse_iteratorINS0_IPNS_4pairINS_12basic_stringIcNS_11char_traitsIcEENS_9allocatorIcEEEES7_EEEEEC1B7v160006ESA_, symObjAddr: 0x5174, symBinAddr: 0x100006218, symSize: 0x3C }
  - { offsetInCU: 0xE7DA, offset: 0xE7DA, size: 0x8, addend: 0x0, symName: __ZNSt3__116reverse_iteratorINS0_IPNS_4pairINS_12basic_stringIcNS_11char_traitsIcEENS_9allocatorIcEEEES7_EEEEEppB7v160006Ev, symObjAddr: 0x5234, symBinAddr: 0x1000062D8, symSize: 0x30 }
  - { offsetInCU: 0xE7FF, offset: 0xE7FF, size: 0x8, addend: 0x0, symName: __ZNKSt3__116reverse_iteratorINS0_IPNS_4pairINS_12basic_stringIcNS_11char_traitsIcEENS_9allocatorIcEEEES7_EEEEE4baseB7v160006Ev, symObjAddr: 0x5264, symBinAddr: 0x100006308, symSize: 0x24 }
  - { offsetInCU: 0xE829, offset: 0xE829, size: 0x8, addend: 0x0, symName: __ZNSt3__119__to_address_helperINS_16reverse_iteratorINS1_IPNS_4pairINS_12basic_stringIcNS_11char_traitsIcEENS_9allocatorIcEEEES8_EEEEEEvE6__callB7v160006ERKSC_, symObjAddr: 0x5288, symBinAddr: 0x10000632C, symSize: 0x4C }
  - { offsetInCU: 0xE84C, offset: 0xE84C, size: 0x8, addend: 0x0, symName: __ZNKSt3__116reverse_iteratorINS0_IPNS_4pairINS_12basic_stringIcNS_11char_traitsIcEENS_9allocatorIcEEEES7_EEEEEptB7v160006Ev, symObjAddr: 0x52D4, symBinAddr: 0x100006378, symSize: 0x24 }
  - { offsetInCU: 0xE871, offset: 0xE871, size: 0x8, addend: 0x0, symName: __ZNKSt3__116reverse_iteratorINS0_IPNS_4pairINS_12basic_stringIcNS_11char_traitsIcEENS_9allocatorIcEEEES7_EEEEEdeB7v160006Ev, symObjAddr: 0x52F8, symBinAddr: 0x10000639C, symSize: 0x34 }
  - { offsetInCU: 0xE8A4, offset: 0xE8A4, size: 0x8, addend: 0x0, symName: __ZNSt3__116reverse_iteratorIPNS_4pairINS_12basic_stringIcNS_11char_traitsIcEENS_9allocatorIcEEEES7_EEEmmB7v160006Ev, symObjAddr: 0x532C, symBinAddr: 0x1000063D0, symSize: 0x20 }
  - { offsetInCU: 0xE8C9, offset: 0xE8C9, size: 0x8, addend: 0x0, symName: __ZNSt3__116reverse_iteratorINS0_IPNS_4pairINS_12basic_stringIcNS_11char_traitsIcEENS_9allocatorIcEEEES7_EEEEEC2B7v160006ESA_, symObjAddr: 0x534C, symBinAddr: 0x1000063F0, symSize: 0x2C }
  - { offsetInCU: 0xE900, offset: 0xE900, size: 0x8, addend: 0x0, symName: __ZNSt3__116reverse_iteratorIPNS_4pairINS_12basic_stringIcNS_11char_traitsIcEENS_9allocatorIcEEEES7_EEEC2B7v160006ES9_, symObjAddr: 0x5378, symBinAddr: 0x10000641C, symSize: 0x28 }
  - { offsetInCU: 0xE937, offset: 0xE937, size: 0x8, addend: 0x0, symName: __ZNSt3__114__split_bufferINS_4pairINS_12basic_stringIcNS_11char_traitsIcEENS_9allocatorIcEEEES7_EERNS5_IS8_EEED2Ev, symObjAddr: 0x53A0, symBinAddr: 0x100006444, symSize: 0x80 }
  - { offsetInCU: 0xE962, offset: 0xE962, size: 0x8, addend: 0x0, symName: __ZNSt3__114__split_bufferINS_4pairINS_12basic_stringIcNS_11char_traitsIcEENS_9allocatorIcEEEES7_EERNS5_IS8_EEE5clearB7v160006Ev, symObjAddr: 0x5420, symBinAddr: 0x1000064C4, symSize: 0x28 }
  - { offsetInCU: 0xE987, offset: 0xE987, size: 0x8, addend: 0x0, symName: __ZNKSt3__114__split_bufferINS_4pairINS_12basic_stringIcNS_11char_traitsIcEENS_9allocatorIcEEEES7_EERNS5_IS8_EEE8capacityB7v160006Ev, symObjAddr: 0x5448, symBinAddr: 0x1000064EC, symSize: 0x40 }
  - { offsetInCU: 0xE9AC, offset: 0xE9AC, size: 0x8, addend: 0x0, symName: __ZNSt3__114__split_bufferINS_4pairINS_12basic_stringIcNS_11char_traitsIcEENS_9allocatorIcEEEES7_EERNS5_IS8_EEE17__destruct_at_endB7v160006EPS8_, symObjAddr: 0x5488, symBinAddr: 0x10000652C, symSize: 0x2C }
  - { offsetInCU: 0xE9DE, offset: 0xE9DE, size: 0x8, addend: 0x0, symName: __ZNSt3__114__split_bufferINS_4pairINS_12basic_stringIcNS_11char_traitsIcEENS_9allocatorIcEEEES7_EERNS5_IS8_EEE17__destruct_at_endB7v160006EPS8_NS_17integral_constantIbLb0EEE, symObjAddr: 0x54B4, symBinAddr: 0x100006558, symSize: 0x94 }
  - { offsetInCU: 0xEA1E, offset: 0xEA1E, size: 0x8, addend: 0x0, symName: __ZNKSt3__114__split_bufferINS_4pairINS_12basic_stringIcNS_11char_traitsIcEENS_9allocatorIcEEEES7_EERNS5_IS8_EEE9__end_capB7v160006Ev, symObjAddr: 0x5548, symBinAddr: 0x1000065EC, symSize: 0x28 }
  - { offsetInCU: 0xEA43, offset: 0xEA43, size: 0x8, addend: 0x0, symName: __ZNKSt3__117__compressed_pairIPNS_4pairINS_12basic_stringIcNS_11char_traitsIcEENS_9allocatorIcEEEES7_EERNS5_IS8_EEE5firstB7v160006Ev, symObjAddr: 0x5570, symBinAddr: 0x100006614, symSize: 0x24 }
  - { offsetInCU: 0xEA68, offset: 0xEA68, size: 0x8, addend: 0x0, symName: __ZNSt3__112basic_stringIcNS_11char_traitsIcEENS_9allocatorIcEEEC2B7v160006IDnEEPKc, symObjAddr: 0x5594, symBinAddr: 0x100006638, symSize: 0x60 }
  - { offsetInCU: 0xEAA5, offset: 0xEAA5, size: 0x8, addend: 0x0, symName: __ZNSt3__14pairIPKcS2_EC1B7v160006ERKS2_S5_, symObjAddr: 0x55F4, symBinAddr: 0x100006698, symSize: 0x3C }
  - { offsetInCU: 0xEAEA, offset: 0xEAEA, size: 0x8, addend: 0x0, symName: __ZNSt3__14pairIPKcS2_EC2B7v160006ERKS2_S5_, symObjAddr: 0x5630, symBinAddr: 0x1000066D4, symSize: 0x34 }
  - { offsetInCU: 0xEB2F, offset: 0xEB2F, size: 0x8, addend: 0x0, symName: __ZNSt3__14pairINS_12basic_stringIcNS_11char_traitsIcEENS_9allocatorIcEEEES6_EC2B7v160006IPKcSA_EERKNS0_IT_T0_EE, symObjAddr: 0x5664, symBinAddr: 0x100006708, symSize: 0x7C }
  - { offsetInCU: 0xEB78, offset: 0xEB78, size: 0x8, addend: 0x0, symName: __ZNSt3__16vectorINS_4pairINS_12basic_stringIcNS_11char_traitsIcEENS_9allocatorIcEEEES7_EENS5_IS8_EEEC2ERKSA_, symObjAddr: 0x56E0, symBinAddr: 0x100006784, symSize: 0x118 }
  - { offsetInCU: 0xEBD6, offset: 0xEBD6, size: 0x8, addend: 0x0, symName: __ZNSt3__116allocator_traitsINS_9allocatorINS_4pairINS_12basic_stringIcNS_11char_traitsIcEENS1_IcEEEES7_EEEEE37select_on_container_copy_constructionB7v160006IS9_vvEES9_RKS9_, symObjAddr: 0x57F8, symBinAddr: 0x10000689C, symSize: 0x10 }
  - { offsetInCU: 0xEC0A, offset: 0xEC0A, size: 0x8, addend: 0x0, symName: __ZNSt3__117__compressed_pairIPNS_4pairINS_12basic_stringIcNS_11char_traitsIcEENS_9allocatorIcEEEES7_EENS5_IS8_EEEC1B7v160006IDnSA_EEOT_OT0_, symObjAddr: 0x5808, symBinAddr: 0x1000068AC, symSize: 0x3C }
  - { offsetInCU: 0xEC61, offset: 0xEC61, size: 0x8, addend: 0x0, symName: __ZNSt3__16vectorINS_4pairINS_12basic_stringIcNS_11char_traitsIcEENS_9allocatorIcEEEES7_EENS5_IS8_EEE11__vallocateB7v160006Em, symObjAddr: 0x5884, symBinAddr: 0x100006928, symSize: 0xB4 }
  - { offsetInCU: 0xECA3, offset: 0xECA3, size: 0x8, addend: 0x0, symName: __ZNSt3__16vectorINS_4pairINS_12basic_stringIcNS_11char_traitsIcEENS_9allocatorIcEEEES7_EENS5_IS8_EEE18__construct_at_endIPS8_Li0EEEvT_SD_m, symObjAddr: 0x5938, symBinAddr: 0x1000069DC, symSize: 0x94 }
  - { offsetInCU: 0xED15, offset: 0xED15, size: 0x8, addend: 0x0, symName: __ZNSt3__128__exception_guard_exceptionsINS_6vectorINS_4pairINS_12basic_stringIcNS_11char_traitsIcEENS_9allocatorIcEEEES8_EENS6_IS9_EEE16__destroy_vectorEE10__completeB7v160006Ev, symObjAddr: 0x59CC, symBinAddr: 0x100006A70, symSize: 0x1C }
  - { offsetInCU: 0xED3A, offset: 0xED3A, size: 0x8, addend: 0x0, symName: __ZNSt3__128__exception_guard_exceptionsINS_6vectorINS_4pairINS_12basic_stringIcNS_11char_traitsIcEENS_9allocatorIcEEEES8_EENS6_IS9_EEE16__destroy_vectorEED1B7v160006Ev, symObjAddr: 0x59E8, symBinAddr: 0x100006A8C, symSize: 0x2C }
  - { offsetInCU: 0xED63, offset: 0xED63, size: 0x8, addend: 0x0, symName: __ZNSt3__117__compressed_pairIPNS_4pairINS_12basic_stringIcNS_11char_traitsIcEENS_9allocatorIcEEEES7_EENS5_IS8_EEEC2B7v160006IDnSA_EEOT_OT0_, symObjAddr: 0x5A14, symBinAddr: 0x100006AB8, symSize: 0x44 }
  - { offsetInCU: 0xEDBA, offset: 0xEDBA, size: 0x8, addend: 0x0, symName: __ZNSt3__122__compressed_pair_elemINS_9allocatorINS_4pairINS_12basic_stringIcNS_11char_traitsIcEENS1_IcEEEES7_EEEELi1ELb1EEC2B7v160006IS9_vEEOT_, symObjAddr: 0x5A58, symBinAddr: 0x100006AFC, symSize: 0x18 }
  - { offsetInCU: 0xEDFB, offset: 0xEDFB, size: 0x8, addend: 0x0, symName: __ZNSt3__128__exception_guard_exceptionsINS_6vectorINS_4pairINS_12basic_stringIcNS_11char_traitsIcEENS_9allocatorIcEEEES8_EENS6_IS9_EEE16__destroy_vectorEEC1B7v160006ESC_, symObjAddr: 0x5A70, symBinAddr: 0x100006B14, symSize: 0x34 }
  - { offsetInCU: 0xEE32, offset: 0xEE32, size: 0x8, addend: 0x0, symName: __ZNSt3__128__exception_guard_exceptionsINS_6vectorINS_4pairINS_12basic_stringIcNS_11char_traitsIcEENS_9allocatorIcEEEES8_EENS6_IS9_EEE16__destroy_vectorEEC2B7v160006ESC_, symObjAddr: 0x5AA4, symBinAddr: 0x100006B48, symSize: 0x24 }
  - { offsetInCU: 0xEE69, offset: 0xEE69, size: 0x8, addend: 0x0, symName: __ZNSt3__129_AllocatorDestroyRangeReverseINS_9allocatorINS_4pairINS_12basic_stringIcNS_11char_traitsIcEENS1_IcEEEES7_EEEEPS8_EC1B7v160006ERS9_RSA_SD_, symObjAddr: 0x5C10, symBinAddr: 0x100006CB4, symSize: 0x44 }
  - { offsetInCU: 0xEEBF, offset: 0xEEBF, size: 0x8, addend: 0x0, symName: __ZNSt3__116allocator_traitsINS_9allocatorINS_4pairINS_12basic_stringIcNS_11char_traitsIcEENS1_IcEEEES7_EEEEE9constructB7v160006IS8_JRS8_EvEEvRS9_PT_DpOT0_, symObjAddr: 0x5C54, symBinAddr: 0x100006CF8, symSize: 0x34 }
  - { offsetInCU: 0xEF16, offset: 0xEF16, size: 0x8, addend: 0x0, symName: __ZNSt3__128__exception_guard_exceptionsINS_29_AllocatorDestroyRangeReverseINS_9allocatorINS_4pairINS_12basic_stringIcNS_11char_traitsIcEENS2_IcEEEES8_EEEEPS9_EEE10__completeB7v160006Ev, symObjAddr: 0x5C88, symBinAddr: 0x100006D2C, symSize: 0x1C }
  - { offsetInCU: 0xEF3B, offset: 0xEF3B, size: 0x8, addend: 0x0, symName: __ZNSt3__128__exception_guard_exceptionsINS_29_AllocatorDestroyRangeReverseINS_9allocatorINS_4pairINS_12basic_stringIcNS_11char_traitsIcEENS2_IcEEEES8_EEEEPS9_EEED1B7v160006Ev, symObjAddr: 0x5CA4, symBinAddr: 0x100006D48, symSize: 0x2C }
  - { offsetInCU: 0xEF64, offset: 0xEF64, size: 0x8, addend: 0x0, symName: __ZNSt3__128__exception_guard_exceptionsINS_29_AllocatorDestroyRangeReverseINS_9allocatorINS_4pairINS_12basic_stringIcNS_11char_traitsIcEENS2_IcEEEES8_EEEEPS9_EEEC1B7v160006ESC_, symObjAddr: 0x5CD0, symBinAddr: 0x100006D74, symSize: 0x34 }
  - { offsetInCU: 0xEF9C, offset: 0xEF9C, size: 0x8, addend: 0x0, symName: __ZNSt3__128__exception_guard_exceptionsINS_29_AllocatorDestroyRangeReverseINS_9allocatorINS_4pairINS_12basic_stringIcNS_11char_traitsIcEENS2_IcEEEES8_EEEEPS9_EEEC2B7v160006ESC_, symObjAddr: 0x5D04, symBinAddr: 0x100006DA8, symSize: 0x30 }
  - { offsetInCU: 0xEFD4, offset: 0xEFD4, size: 0x8, addend: 0x0, symName: __ZNSt3__129_AllocatorDestroyRangeReverseINS_9allocatorINS_4pairINS_12basic_stringIcNS_11char_traitsIcEENS1_IcEEEES7_EEEEPS8_EC2B7v160006ERS9_RSA_SD_, symObjAddr: 0x5D34, symBinAddr: 0x100006DD8, symSize: 0x38 }
  - { offsetInCU: 0xF02A, offset: 0xF02A, size: 0x8, addend: 0x0, symName: __ZNSt3__19allocatorINS_4pairINS_12basic_stringIcNS_11char_traitsIcEENS0_IcEEEES6_EEE9constructB7v160006IS7_JRS7_EEEvPT_DpOT0_, symObjAddr: 0x5D6C, symBinAddr: 0x100006E10, symSize: 0x30 }
  - { offsetInCU: 0xF07F, offset: 0xF07F, size: 0x8, addend: 0x0, symName: __ZNSt3__128__exception_guard_exceptionsINS_29_AllocatorDestroyRangeReverseINS_9allocatorINS_4pairINS_12basic_stringIcNS_11char_traitsIcEENS2_IcEEEES8_EEEEPS9_EEED2B7v160006Ev, symObjAddr: 0x5D9C, symBinAddr: 0x100006E40, symSize: 0x48 }
  - { offsetInCU: 0xF0A8, offset: 0xF0A8, size: 0x8, addend: 0x0, symName: __ZNKSt3__129_AllocatorDestroyRangeReverseINS_9allocatorINS_4pairINS_12basic_stringIcNS_11char_traitsIcEENS1_IcEEEES7_EEEEPS8_EclB7v160006Ev, symObjAddr: 0x5DE4, symBinAddr: 0x100006E88, symSize: 0x68 }
  - { offsetInCU: 0xF0CD, offset: 0xF0CD, size: 0x8, addend: 0x0, symName: __ZNSt3__128__exception_guard_exceptionsINS_6vectorINS_4pairINS_12basic_stringIcNS_11char_traitsIcEENS_9allocatorIcEEEES8_EENS6_IS9_EEE16__destroy_vectorEED2B7v160006Ev, symObjAddr: 0x5EBC, symBinAddr: 0x100006F60, symSize: 0x48 }
  - { offsetInCU: 0xF0F5, offset: 0xF0F5, size: 0x8, addend: 0x0, symName: __ZNSt3__16vectorINS_4pairINS_12basic_stringIcNS_11char_traitsIcEENS_9allocatorIcEEEES7_EENS5_IS8_EEE13__move_assignERSA_NS_17integral_constantIbLb1EEE, symObjAddr: 0x5F04, symBinAddr: 0x100006FA8, symSize: 0xA4 }
  - { offsetInCU: 0xF136, offset: 0xF136, size: 0x8, addend: 0x0, symName: __ZNSt3__16vectorINS_4pairINS_12basic_stringIcNS_11char_traitsIcEENS_9allocatorIcEEEES7_EENS5_IS8_EEE13__vdeallocateEv, symObjAddr: 0x5FA8, symBinAddr: 0x10000704C, symSize: 0x8C }
  - { offsetInCU: 0xF15D, offset: 0xF15D, size: 0x8, addend: 0x0, symName: __ZNSt3__16vectorINS_4pairINS_12basic_stringIcNS_11char_traitsIcEENS_9allocatorIcEEEES7_EENS5_IS8_EEE19__move_assign_allocB7v160006ERSA_, symObjAddr: 0x6034, symBinAddr: 0x1000070D8, symSize: 0x2C }
  - { offsetInCU: 0xF191, offset: 0xF191, size: 0x8, addend: 0x0, symName: __ZNSt3__16vectorINS_4pairINS_12basic_stringIcNS_11char_traitsIcEENS_9allocatorIcEEEES7_EENS5_IS8_EEE5clearB7v160006Ev, symObjAddr: 0x6074, symBinAddr: 0x100007118, symSize: 0x4C }
  - { offsetInCU: 0xF1C5, offset: 0xF1C5, size: 0x8, addend: 0x0, symName: __ZNKSt3__16vectorINS_4pairINS_12basic_stringIcNS_11char_traitsIcEENS_9allocatorIcEEEES7_EENS5_IS8_EEE17__annotate_shrinkB7v160006Em, symObjAddr: 0x60C0, symBinAddr: 0x100007164, symSize: 0xD0 }
  - { offsetInCU: 0xF1F9, offset: 0xF1F9, size: 0x8, addend: 0x0, symName: __ZNSt3__16vectorINS_4pairINS_12basic_stringIcNS_11char_traitsIcEENS_9allocatorIcEEEES7_EENS5_IS8_EEE19__move_assign_allocB7v160006ERSA_NS_17integral_constantIbLb1EEE, symObjAddr: 0x6190, symBinAddr: 0x100007234, symSize: 0x38 }
...
